
libs/armeabi-v7a/libinterfazParaJava.so:     file format elf32-littlearm


Disassembly of section .plt:

00001dc0 <__cxa_atexit@plt-0x14>:
    1dc0:	e52de004 	push	{lr}		; (str lr, [sp, #-4]!)
    1dc4:	e59fe004 	ldr	lr, [pc, #4]	; 1dd0 <__cxa_atexit@plt-0x4>
    1dc8:	e08fe00e 	add	lr, pc, lr
    1dcc:	e5bef008 	ldr	pc, [lr, #8]!
    1dd0:	00007198 	muleq	r0, r8, r1

00001dd4 <__cxa_atexit@plt>:
    1dd4:	e28fc600 	add	ip, pc, #0, 12
    1dd8:	e28cca07 	add	ip, ip, #28672	; 0x7000
    1ddc:	e5bcf198 	ldr	pc, [ip, #408]!	; 0x198

00001de0 <__cxa_finalize@plt>:
    1de0:	e28fc600 	add	ip, pc, #0, 12
    1de4:	e28cca07 	add	ip, ip, #28672	; 0x7000
    1de8:	e5bcf190 	ldr	pc, [ip, #400]!	; 0x190

00001dec <malloc@plt>:
    1dec:	e28fc600 	add	ip, pc, #0, 12
    1df0:	e28cca07 	add	ip, ip, #28672	; 0x7000
    1df4:	e5bcf188 	ldr	pc, [ip, #392]!	; 0x188

00001df8 <sin@plt>:
    1df8:	e28fc600 	add	ip, pc, #0, 12
    1dfc:	e28cca07 	add	ip, ip, #28672	; 0x7000
    1e00:	e5bcf180 	ldr	pc, [ip, #384]!	; 0x180

00001e04 <cos@plt>:
    1e04:	e28fc600 	add	ip, pc, #0, 12
    1e08:	e28cca07 	add	ip, ip, #28672	; 0x7000
    1e0c:	e5bcf178 	ldr	pc, [ip, #376]!	; 0x178

00001e10 <free@plt>:
    1e10:	e28fc600 	add	ip, pc, #0, 12
    1e14:	e28cca07 	add	ip, ip, #28672	; 0x7000
    1e18:	e5bcf170 	ldr	pc, [ip, #368]!	; 0x170

00001e1c <fopen@plt>:
    1e1c:	e28fc600 	add	ip, pc, #0, 12
    1e20:	e28cca07 	add	ip, ip, #28672	; 0x7000
    1e24:	e5bcf168 	ldr	pc, [ip, #360]!	; 0x168

00001e28 <fread@plt>:
    1e28:	e28fc600 	add	ip, pc, #0, 12
    1e2c:	e28cca07 	add	ip, ip, #28672	; 0x7000
    1e30:	e5bcf160 	ldr	pc, [ip, #352]!	; 0x160

00001e34 <fclose@plt>:
    1e34:	e28fc600 	add	ip, pc, #0, 12
    1e38:	e28cca07 	add	ip, ip, #28672	; 0x7000
    1e3c:	e5bcf158 	ldr	pc, [ip, #344]!	; 0x158

00001e40 <__stack_chk_fail@plt>:
    1e40:	e28fc600 	add	ip, pc, #0, 12
    1e44:	e28cca07 	add	ip, ip, #28672	; 0x7000
    1e48:	e5bcf150 	ldr	pc, [ip, #336]!	; 0x150

00001e4c <memcpy@plt>:
    1e4c:	e28fc600 	add	ip, pc, #0, 12
    1e50:	e28cca07 	add	ip, ip, #28672	; 0x7000
    1e54:	e5bcf148 	ldr	pc, [ip, #328]!	; 0x148

00001e58 <memset@plt>:
    1e58:	e28fc600 	add	ip, pc, #0, 12
    1e5c:	e28cca07 	add	ip, ip, #28672	; 0x7000
    1e60:	e5bcf140 	ldr	pc, [ip, #320]!	; 0x140

00001e64 <sqrt@plt>:
    1e64:	e28fc600 	add	ip, pc, #0, 12
    1e68:	e28cca07 	add	ip, ip, #28672	; 0x7000
    1e6c:	e5bcf138 	ldr	pc, [ip, #312]!	; 0x138

00001e70 <pow@plt>:
    1e70:	e28fc600 	add	ip, pc, #0, 12
    1e74:	e28cca07 	add	ip, ip, #28672	; 0x7000
    1e78:	e5bcf130 	ldr	pc, [ip, #304]!	; 0x130

00001e7c <log10@plt>:
    1e7c:	e28fc600 	add	ip, pc, #0, 12
    1e80:	e28cca07 	add	ip, ip, #28672	; 0x7000
    1e84:	e5bcf128 	ldr	pc, [ip, #296]!	; 0x128

00001e88 <exp@plt>:
    1e88:	e28fc600 	add	ip, pc, #0, 12
    1e8c:	e28cca07 	add	ip, ip, #28672	; 0x7000
    1e90:	e5bcf120 	ldr	pc, [ip, #288]!	; 0x120

00001e94 <sprintf@plt>:
    1e94:	e28fc600 	add	ip, pc, #0, 12
    1e98:	e28cca07 	add	ip, ip, #28672	; 0x7000
    1e9c:	e5bcf118 	ldr	pc, [ip, #280]!	; 0x118

00001ea0 <__android_log_write@plt>:
    1ea0:	e28fc600 	add	ip, pc, #0, 12
    1ea4:	e28cca07 	add	ip, ip, #28672	; 0x7000
    1ea8:	e5bcf110 	ldr	pc, [ip, #272]!	; 0x110

00001eac <fwrite@plt>:
    1eac:	e28fc600 	add	ip, pc, #0, 12
    1eb0:	e28cca07 	add	ip, ip, #28672	; 0x7000
    1eb4:	e5bcf108 	ldr	pc, [ip, #264]!	; 0x108

00001eb8 <__android_log_print@plt>:
    1eb8:	e28fc600 	add	ip, pc, #0, 12
    1ebc:	e28cca07 	add	ip, ip, #28672	; 0x7000
    1ec0:	e5bcf100 	ldr	pc, [ip, #256]!	; 0x100

00001ec4 <getenv@plt>:
    1ec4:	e28fc600 	add	ip, pc, #0, 12
    1ec8:	e28cca07 	add	ip, ip, #28672	; 0x7000
    1ecc:	e5bcf0f8 	ldr	pc, [ip, #248]!	; 0xf8

00001ed0 <strtol@plt>:
    1ed0:	e28fc600 	add	ip, pc, #0, 12
    1ed4:	e28cca07 	add	ip, ip, #28672	; 0x7000
    1ed8:	e5bcf0f0 	ldr	pc, [ip, #240]!	; 0xf0

00001edc <calloc@plt>:
    1edc:	e28fc600 	add	ip, pc, #0, 12
    1ee0:	e28cca07 	add	ip, ip, #28672	; 0x7000
    1ee4:	e5bcf0e8 	ldr	pc, [ip, #232]!	; 0xe8

00001ee8 <sigaction@plt>:
    1ee8:	e28fc600 	add	ip, pc, #0, 12
    1eec:	e28cca07 	add	ip, ip, #28672	; 0x7000
    1ef0:	e5bcf0e0 	ldr	pc, [ip, #224]!	; 0xe0

00001ef4 <__errno@plt>:
    1ef4:	e28fc600 	add	ip, pc, #0, 12
    1ef8:	e28cca07 	add	ip, ip, #28672	; 0x7000
    1efc:	e5bcf0d8 	ldr	pc, [ip, #216]!	; 0xd8

00001f00 <setitimer@plt>:
    1f00:	e28fc600 	add	ip, pc, #0, 12
    1f04:	e28cca07 	add	ip, ip, #28672	; 0x7000
    1f08:	e5bcf0d0 	ldr	pc, [ip, #208]!	; 0xd0

00001f0c <strlen@plt>:
    1f0c:	e28fc600 	add	ip, pc, #0, 12
    1f10:	e28cca07 	add	ip, ip, #28672	; 0x7000
    1f14:	e5bcf0c8 	ldr	pc, [ip, #200]!	; 0xc8

00001f18 <strcmp@plt>:
    1f18:	e28fc600 	add	ip, pc, #0, 12
    1f1c:	e28cca07 	add	ip, ip, #28672	; 0x7000
    1f20:	e5bcf0c0 	ldr	pc, [ip, #192]!	; 0xc0

00001f24 <sscanf@plt>:
    1f24:	e28fc600 	add	ip, pc, #0, 12
    1f28:	e28cca07 	add	ip, ip, #28672	; 0x7000
    1f2c:	e5bcf0b8 	ldr	pc, [ip, #184]!	; 0xb8

00001f30 <fgets@plt>:
    1f30:	e28fc600 	add	ip, pc, #0, 12
    1f34:	e28cca07 	add	ip, ip, #28672	; 0x7000
    1f38:	e5bcf0b0 	ldr	pc, [ip, #176]!	; 0xb0

00001f3c <raise@plt>:
    1f3c:	e28fc600 	add	ip, pc, #0, 12
    1f40:	e28cca07 	add	ip, ip, #28672	; 0x7000
    1f44:	e5bcf0a8 	ldr	pc, [ip, #168]!	; 0xa8

00001f48 <__gnu_Unwind_Find_exidx@plt>:
    1f48:	e28fc600 	add	ip, pc, #0, 12
    1f4c:	e28cca07 	add	ip, ip, #28672	; 0x7000
    1f50:	e5bcf0a0 	ldr	pc, [ip, #160]!	; 0xa0

00001f54 <abort@plt>:
    1f54:	e28fc600 	add	ip, pc, #0, 12
    1f58:	e28cca07 	add	ip, ip, #28672	; 0x7000
    1f5c:	e5bcf098 	ldr	pc, [ip, #152]!	; 0x98

00001f60 <__cxa_begin_cleanup@plt>:
    1f60:	e28fc600 	add	ip, pc, #0, 12
    1f64:	e28cca07 	add	ip, ip, #28672	; 0x7000
    1f68:	e5bcf090 	ldr	pc, [ip, #144]!	; 0x90

00001f6c <__cxa_type_match@plt>:
    1f6c:	e28fc600 	add	ip, pc, #0, 12
    1f70:	e28cca07 	add	ip, ip, #28672	; 0x7000
    1f74:	e5bcf088 	ldr	pc, [ip, #136]!	; 0x88

Disassembly of section .text:

00001f78 <Java_com_ecualizador_LibC_inicializar-0x24>:
    1f78:	e59f2008 	ldr	r2, [pc, #8]	; 1f88 <__cxa_type_match@plt+0x1c>
    1f7c:	e3a01000 	mov	r1, #0
    1f80:	e08f2002 	add	r2, pc, r2
    1f84:	eaffff92 	b	1dd4 <__cxa_atexit@plt>
    1f88:	00007078 	andeq	r7, r0, r8, ror r0
    1f8c:	e59f0004 	ldr	r0, [pc, #4]	; 1f98 <__cxa_type_match@plt+0x2c>
    1f90:	e08f0000 	add	r0, pc, r0
    1f94:	eaffff91 	b	1de0 <__cxa_finalize@plt>
    1f98:	00007068 	andeq	r7, r0, r8, rrx

00001f9c <Java_com_ecualizador_LibC_inicializar>:
    1f9c:	e92d4bf0 	push	{r4, r5, r6, r7, r8, r9, fp, lr}
    1fa0:	e28db01c 	add	fp, sp, #28
    1fa4:	e59f0050 	ldr	r0, [pc, #80]	; 1ffc <Java_com_ecualizador_LibC_inicializar+0x60>
    1fa8:	e1a08002 	mov	r8, r2
    1fac:	e59b5004 	ldr	r5, [fp, #4]
    1fb0:	e1a06003 	mov	r6, r3
    1fb4:	e59b4008 	ldr	r4, [fp, #8]
    1fb8:	e08f0000 	add	r0, pc, r0
    1fbc:	e59b700c 	ldr	r7, [fp, #12]
    1fc0:	eb00156c 	bl	7578 <_Unwind_GetTextRelBase+0x8>
    1fc4:	e59f0034 	ldr	r0, [pc, #52]	; 2000 <Java_com_ecualizador_LibC_inicializar+0x64>
    1fc8:	e1a01008 	mov	r1, r8
    1fcc:	e1a02005 	mov	r2, r5
    1fd0:	e1a03004 	mov	r3, r4
    1fd4:	e79f0000 	ldr	r0, [pc, r0]
    1fd8:	eb000928 	bl	4480 <inicializarEQ>
    1fdc:	e59f0020 	ldr	r0, [pc, #32]	; 2004 <Java_com_ecualizador_LibC_inicializar+0x68>
    1fe0:	e1a01006 	mov	r1, r6
    1fe4:	e1a02005 	mov	r2, r5
    1fe8:	e79f0000 	ldr	r0, [pc, r0]
    1fec:	e1a03004 	mov	r3, r4
    1ff0:	e58b7004 	str	r7, [fp, #4]
    1ff4:	e8bd4bf0 	pop	{r4, r5, r6, r7, r8, r9, fp, lr}
    1ff8:	ea000af2 	b	4bc8 <inicializarAnalizador>
    1ffc:	00005a20 	andeq	r5, r0, r0, lsr #20
    2000:	00006f2c 	andeq	r6, r0, ip, lsr #30
    2004:	00006f1c 	andeq	r6, r0, ip, lsl pc

00002008 <Java_com_ecualizador_LibC_limpiarEQYAnalizador>:
    2008:	e59f001c 	ldr	r0, [pc, #28]	; 202c <Java_com_ecualizador_LibC_limpiarEQYAnalizador+0x24>
    200c:	e92d4800 	push	{fp, lr}
    2010:	e79f0000 	ldr	r0, [pc, r0]
    2014:	e28db004 	add	fp, sp, #4
    2018:	eb000992 	bl	4668 <limpiarEQ>
    201c:	e59f000c 	ldr	r0, [pc, #12]	; 2030 <Java_com_ecualizador_LibC_limpiarEQYAnalizador+0x28>
    2020:	e79f0000 	ldr	r0, [pc, r0]
    2024:	e8bd4800 	pop	{fp, lr}
    2028:	ea000cab 	b	52dc <limpiarAN>
    202c:	00006ef0 	strdeq	r6, [r0], -r0
    2030:	00006ee4 	andeq	r6, r0, r4, ror #29

00002034 <Java_com_ecualizador_LibC_destruir>:
    2034:	e59f0020 	ldr	r0, [pc, #32]	; 205c <Java_com_ecualizador_LibC_destruir+0x28>
    2038:	e92d4800 	push	{fp, lr}
    203c:	e79f0000 	ldr	r0, [pc, r0]
    2040:	e28db004 	add	fp, sp, #4
    2044:	eb000ab8 	bl	4b2c <destruirEQ>
    2048:	e59f0010 	ldr	r0, [pc, #16]	; 2060 <Java_com_ecualizador_LibC_destruir+0x2c>
    204c:	e79f0000 	ldr	r0, [pc, r0]
    2050:	eb000caa 	bl	5300 <destruirAnalizador>
    2054:	e8bd4800 	pop	{fp, lr}
    2058:	ea00154a 	b	7588 <_Unwind_GetTextRelBase+0x18>
    205c:	00006ec4 	andeq	r6, r0, r4, asr #29
    2060:	00006eb8 			; <UNDEFINED> instruction: 0x00006eb8

00002064 <Java_com_ecualizador_LibC_ecualizar>:
    2064:	e92d4878 	push	{r3, r4, r5, r6, fp, lr}
    2068:	e1a05002 	mov	r5, r2
    206c:	e5903000 	ldr	r3, [r0]
    2070:	e28db014 	add	fp, sp, #20
    2074:	e3a02000 	mov	r2, #0
    2078:	e1a01005 	mov	r1, r5
    207c:	e1a04000 	mov	r4, r0
    2080:	e59332e0 	ldr	r3, [r3, #736]	; 0x2e0
    2084:	e12fff33 	blx	r3
    2088:	e1a06000 	mov	r6, r0
    208c:	e1a01000 	mov	r1, r0
    2090:	e59f0024 	ldr	r0, [pc, #36]	; 20bc <Java_com_ecualizador_LibC_ecualizar+0x58>
    2094:	e79f0000 	ldr	r0, [pc, r0]
    2098:	eb00097f 	bl	469c <ecualizar>
    209c:	e594c000 	ldr	ip, [r4]
    20a0:	e1a00004 	mov	r0, r4
    20a4:	e1a01005 	mov	r1, r5
    20a8:	e1a02006 	mov	r2, r6
    20ac:	e3a03000 	mov	r3, #0
    20b0:	e59cc300 	ldr	ip, [ip, #768]	; 0x300
    20b4:	e12fff3c 	blx	ip
    20b8:	e8bd8878 	pop	{r3, r4, r5, r6, fp, pc}
    20bc:	00006e6c 	andeq	r6, r0, ip, ror #28

000020c0 <Java_com_ecualizador_LibC_ultimo>:
    20c0:	e92d4878 	push	{r3, r4, r5, r6, fp, lr}
    20c4:	e1a05002 	mov	r5, r2
    20c8:	e5903000 	ldr	r3, [r0]
    20cc:	e28db014 	add	fp, sp, #20
    20d0:	e3a02000 	mov	r2, #0
    20d4:	e1a01005 	mov	r1, r5
    20d8:	e1a04000 	mov	r4, r0
    20dc:	e59332e0 	ldr	r3, [r3, #736]	; 0x2e0
    20e0:	e12fff33 	blx	r3
    20e4:	e1a06000 	mov	r6, r0
    20e8:	e1a01000 	mov	r1, r0
    20ec:	e59f0024 	ldr	r0, [pc, #36]	; 2118 <Java_com_ecualizador_LibC_ultimo+0x58>
    20f0:	e79f0000 	ldr	r0, [pc, r0]
    20f4:	eb000a1d 	bl	4970 <ultimoCachito>
    20f8:	e594c000 	ldr	ip, [r4]
    20fc:	e1a00004 	mov	r0, r4
    2100:	e1a01005 	mov	r1, r5
    2104:	e1a02006 	mov	r2, r6
    2108:	e3a03000 	mov	r3, #0
    210c:	e59cc300 	ldr	ip, [ip, #768]	; 0x300
    2110:	e12fff3c 	blx	ip
    2114:	e8bd8878 	pop	{r3, r4, r5, r6, fp, pc}
    2118:	00006e10 	andeq	r6, r0, r0, lsl lr

0000211c <Java_com_ecualizador_LibC_actualizarFiltroEQ>:
    211c:	e92d4878 	push	{r3, r4, r5, r6, fp, lr}
    2120:	e1a05002 	mov	r5, r2
    2124:	e5903000 	ldr	r3, [r0]
    2128:	e28db014 	add	fp, sp, #20
    212c:	e3a02000 	mov	r2, #0
    2130:	e1a01005 	mov	r1, r5
    2134:	e1a04000 	mov	r4, r0
    2138:	e59332e0 	ldr	r3, [r3, #736]	; 0x2e0
    213c:	e12fff33 	blx	r3
    2140:	e1a06000 	mov	r6, r0
    2144:	e1a01000 	mov	r1, r0
    2148:	e59f0024 	ldr	r0, [pc, #36]	; 2174 <Java_com_ecualizador_LibC_actualizarFiltroEQ+0x58>
    214c:	e79f0000 	ldr	r0, [pc, r0]
    2150:	eb00088e 	bl	4390 <actualizarFiltro>
    2154:	e594c000 	ldr	ip, [r4]
    2158:	e1a00004 	mov	r0, r4
    215c:	e1a01005 	mov	r1, r5
    2160:	e1a02006 	mov	r2, r6
    2164:	e3a03002 	mov	r3, #2
    2168:	e59cc300 	ldr	ip, [ip, #768]	; 0x300
    216c:	e12fff3c 	blx	ip
    2170:	e8bd8878 	pop	{r3, r4, r5, r6, fp, pc}
    2174:	00006db4 			; <UNDEFINED> instruction: 0x00006db4

00002178 <Java_com_ecualizador_LibC_ecualizarYEscribirCancion>:
    2178:	e92d4800 	push	{fp, lr}
    217c:	e1a01002 	mov	r1, r2
    2180:	e5903000 	ldr	r3, [r0]
    2184:	e28db004 	add	fp, sp, #4
    2188:	e3a02000 	mov	r2, #0
    218c:	e59332a4 	ldr	r3, [r3, #676]	; 0x2a4
    2190:	e12fff33 	blx	r3
    2194:	e1a01000 	mov	r1, r0
    2198:	e59f0008 	ldr	r0, [pc, #8]	; 21a8 <Java_com_ecualizador_LibC_ecualizarYEscribirCancion+0x30>
    219c:	e79f0000 	ldr	r0, [pc, r0]
    21a0:	e8bd4800 	pop	{fp, lr}
    21a4:	ea0009fe 	b	49a4 <ecualizarYEscribirCancion>
    21a8:	00006d64 	andeq	r6, r0, r4, ror #26

000021ac <Java_com_ecualizador_LibC_analizar>:
    21ac:	e92d4878 	push	{r3, r4, r5, r6, fp, lr}
    21b0:	e1a05002 	mov	r5, r2
    21b4:	e5903000 	ldr	r3, [r0]
    21b8:	e28db014 	add	fp, sp, #20
    21bc:	e3a02000 	mov	r2, #0
    21c0:	e1a01005 	mov	r1, r5
    21c4:	e1a04000 	mov	r4, r0
    21c8:	e59332e0 	ldr	r3, [r3, #736]	; 0x2e0
    21cc:	e12fff33 	blx	r3
    21d0:	e1a06000 	mov	r6, r0
    21d4:	e1a01000 	mov	r1, r0
    21d8:	e59f0024 	ldr	r0, [pc, #36]	; 2204 <Java_com_ecualizador_LibC_analizar+0x58>
    21dc:	e79f0000 	ldr	r0, [pc, r0]
    21e0:	eb000aad 	bl	4c9c <analizar>
    21e4:	e594c000 	ldr	ip, [r4]
    21e8:	e1a00004 	mov	r0, r4
    21ec:	e1a01005 	mov	r1, r5
    21f0:	e1a02006 	mov	r2, r6
    21f4:	e3a03002 	mov	r3, #2
    21f8:	e59cc300 	ldr	ip, [ip, #768]	; 0x300
    21fc:	e12fff3c 	blx	ip
    2200:	e8bd8878 	pop	{r3, r4, r5, r6, fp, pc}
    2204:	00006d28 	andeq	r6, r0, r8, lsr #26

00002208 <Java_com_ecualizador_LibC_dameAnalisis>:
    2208:	e92d4878 	push	{r3, r4, r5, r6, fp, lr}
    220c:	e1a05002 	mov	r5, r2
    2210:	e5903000 	ldr	r3, [r0]
    2214:	e28db014 	add	fp, sp, #20
    2218:	e3a02000 	mov	r2, #0
    221c:	e1a01005 	mov	r1, r5
    2220:	e1a04000 	mov	r4, r0
    2224:	e59332f4 	ldr	r3, [r3, #756]	; 0x2f4
    2228:	e12fff33 	blx	r3
    222c:	e1a06000 	mov	r6, r0
    2230:	e1a01000 	mov	r1, r0
    2234:	e59f0024 	ldr	r0, [pc, #36]	; 2260 <Java_com_ecualizador_LibC_dameAnalisis+0x58>
    2238:	e79f0000 	ldr	r0, [pc, r0]
    223c:	eb000c02 	bl	524c <dameAnalisis>
    2240:	e594c000 	ldr	ip, [r4]
    2244:	e1a00004 	mov	r0, r4
    2248:	e1a01005 	mov	r1, r5
    224c:	e1a02006 	mov	r2, r6
    2250:	e3a03000 	mov	r3, #0
    2254:	e59cc314 	ldr	ip, [ip, #788]	; 0x314
    2258:	e12fff3c 	blx	ip
    225c:	e8bd8878 	pop	{r3, r4, r5, r6, fp, pc}
    2260:	00006ccc 	andeq	r6, r0, ip, asr #25
    2264:	00000000 	andeq	r0, r0, r0

00002268 <realFFT>:
    2268:	e92d4ff0 	push	{r4, r5, r6, r7, r8, r9, sl, fp, lr}
    226c:	e28db020 	add	fp, sp, #32
    2270:	e24dd06c 	sub	sp, sp, #108	; 0x6c
    2274:	e50b2078 	str	r2, [fp, #-120]	; 0x78
    2278:	e50b307c 	str	r3, [fp, #-124]	; 0x7c
    227c:	e5904004 	ldr	r4, [r0, #4]
    2280:	e590c00c 	ldr	ip, [r0, #12]
    2284:	e5906000 	ldr	r6, [r0]
    2288:	e50b4068 	str	r4, [fp, #-104]	; 0x68
    228c:	e5904010 	ldr	r4, [r0, #16]
    2290:	e3560001 	cmp	r6, #1
    2294:	e50bc06c 	str	ip, [fp, #-108]	; 0x6c
    2298:	e5908018 	ldr	r8, [r0, #24]
    229c:	e590c014 	ldr	ip, [r0, #20]
    22a0:	e50b4074 	str	r4, [fp, #-116]	; 0x74
    22a4:	e590401c 	ldr	r4, [r0, #28]
    22a8:	e5900020 	ldr	r0, [r0, #32]
    22ac:	e50bc054 	str	ip, [fp, #-84]	; 0x54
    22b0:	e50b4080 	str	r4, [fp, #-128]	; 0x80
    22b4:	e50b0084 	str	r0, [fp, #-132]	; 0x84
    22b8:	e51bc068 	ldr	ip, [fp, #-104]	; 0x68
    22bc:	0a000074 	beq	2494 <realFFT+0x22c>
    22c0:	e35c0001 	cmp	ip, #1
    22c4:	0a0000e4 	beq	265c <realFFT+0x3f4>
    22c8:	e50b1044 	str	r1, [fp, #-68]	; 0x44
    22cc:	da0000e8 	ble	2674 <realFFT+0x40c>
    22d0:	e51b4068 	ldr	r4, [fp, #-104]	; 0x68
    22d4:	e3053555 	movw	r3, #21845	; 0x5555
    22d8:	e3453555 	movt	r3, #21845	; 0x5555
    22dc:	e3a06001 	mov	r6, #1
    22e0:	e0043003 	and	r3, r4, r3
    22e4:	e50b8058 	str	r8, [fp, #-88]	; 0x58
    22e8:	e2733001 	rsbs	r3, r3, #1
    22ec:	e1a020c4 	asr	r2, r4, #1
    22f0:	33a03000 	movcc	r3, #0
    22f4:	e1a02182 	lsl	r2, r2, #3
    22f8:	e1a0c003 	mov	ip, r3
    22fc:	e50b2070 	str	r2, [fp, #-112]	; 0x70
    2300:	e50b3060 	str	r3, [fp, #-96]	; 0x60
    2304:	e31c0001 	tst	ip, #1
    2308:	e51b4074 	ldr	r4, [fp, #-116]	; 0x74
    230c:	e51bc06c 	ldr	ip, [fp, #-108]	; 0x6c
    2310:	11a0400c 	movne	r4, ip
    2314:	e3560000 	cmp	r6, #0
    2318:	e51bc070 	ldr	ip, [fp, #-112]	; 0x70
    231c:	d1a06086 	lslle	r6, r6, #1
    2320:	e50b405c 	str	r4, [fp, #-92]	; 0x5c
    2324:	e084300c 	add	r3, r4, ip
    2328:	e50b403c 	str	r4, [fp, #-60]	; 0x3c
    232c:	e50b3034 	str	r3, [fp, #-52]	; 0x34
    2330:	d50b6064 	strle	r6, [fp, #-100]	; 0x64
    2334:	da00002b 	ble	23e8 <realFFT+0x180>
    2338:	e1a04086 	lsl	r4, r6, #1
    233c:	e50b4064 	str	r4, [fp, #-100]	; 0x64
    2340:	e51b0068 	ldr	r0, [fp, #-104]	; 0x68
    2344:	e3a04000 	mov	r4, #0
    2348:	e51b1064 	ldr	r1, [fp, #-100]	; 0x64
    234c:	e24b803c 	sub	r8, fp, #60	; 0x3c
    2350:	eb000f40 	bl	6058 <__aeabi_idiv>
    2354:	e24ba034 	sub	sl, fp, #52	; 0x34
    2358:	e1a05004 	mov	r5, r4
    235c:	e50b6080 	str	r6, [fp, #-128]	; 0x80
    2360:	e1a09180 	lsl	r9, r0, #3
    2364:	e1a07000 	mov	r7, r0
    2368:	e1a0c100 	lsl	ip, r0, #2
    236c:	e50bc048 	str	ip, [fp, #-72]	; 0x48
    2370:	e24bc028 	sub	ip, fp, #40	; 0x28
    2374:	e50bc04c 	str	ip, [fp, #-76]	; 0x4c
    2378:	e24bc02c 	sub	ip, fp, #44	; 0x2c
    237c:	e50bc050 	str	ip, [fp, #-80]	; 0x50
    2380:	e51b6054 	ldr	r6, [fp, #-84]	; 0x54
    2384:	e1a0300a 	mov	r3, sl
    2388:	e24b0044 	sub	r0, fp, #68	; 0x44
    238c:	e1a01007 	mov	r1, r7
    2390:	e086e004 	add	lr, r6, r4
    2394:	e51b6058 	ldr	r6, [fp, #-88]	; 0x58
    2398:	e1a02008 	mov	r2, r8
    239c:	e2855001 	add	r5, r5, #1
    23a0:	e59ee000 	ldr	lr, [lr]
    23a4:	e086c004 	add	ip, r6, r4
    23a8:	e51b604c 	ldr	r6, [fp, #-76]	; 0x4c
    23ac:	e50be028 	str	lr, [fp, #-40]	; 0x28
    23b0:	e59cc000 	ldr	ip, [ip]
    23b4:	e58d6000 	str	r6, [sp]
    23b8:	e51b6048 	ldr	r6, [fp, #-72]	; 0x48
    23bc:	e50bc02c 	str	ip, [fp, #-44]	; 0x2c
    23c0:	e51bc050 	ldr	ip, [fp, #-80]	; 0x50
    23c4:	e0844006 	add	r4, r4, r6
    23c8:	e58dc004 	str	ip, [sp, #4]
    23cc:	eb000c77 	bl	55b0 <bucleMedioFftASM>
    23d0:	e51b6080 	ldr	r6, [fp, #-128]	; 0x80
    23d4:	e51b3044 	ldr	r3, [fp, #-68]	; 0x44
    23d8:	e1550006 	cmp	r5, r6
    23dc:	e0833009 	add	r3, r3, r9
    23e0:	e50b3044 	str	r3, [fp, #-68]	; 0x44
    23e4:	1affffe5 	bne	2380 <realFFT+0x118>
    23e8:	e51bc068 	ldr	ip, [fp, #-104]	; 0x68
    23ec:	e51b6064 	ldr	r6, [fp, #-100]	; 0x64
    23f0:	e51b405c 	ldr	r4, [fp, #-92]	; 0x5c
    23f4:	e15c0006 	cmp	ip, r6
    23f8:	e51bc060 	ldr	ip, [fp, #-96]	; 0x60
    23fc:	e50b4044 	str	r4, [fp, #-68]	; 0x44
    2400:	e28cc001 	add	ip, ip, #1
    2404:	e50bc060 	str	ip, [fp, #-96]	; 0x60
    2408:	caffffbd 	bgt	2304 <realFFT+0x9c>
    240c:	e51b406c 	ldr	r4, [fp, #-108]	; 0x6c
    2410:	e51b6068 	ldr	r6, [fp, #-104]	; 0x68
    2414:	e51b0078 	ldr	r0, [fp, #-120]	; 0x78
    2418:	e5942000 	ldr	r2, [r4]
    241c:	e0843186 	add	r3, r4, r6, lsl #3
    2420:	e51b107c 	ldr	r1, [fp, #-124]	; 0x7c
    2424:	e5832000 	str	r2, [r3]
    2428:	e1a02004 	mov	r2, r4
    242c:	e594c004 	ldr	ip, [r4, #4]
    2430:	e583c004 	str	ip, [r3, #4]
    2434:	e1a03006 	mov	r3, r6
    2438:	eb000cb8 	bl	5720 <bucleMedioSplitStereoASM>
    243c:	e5942000 	ldr	r2, [r4]
    2440:	e51bc078 	ldr	ip, [fp, #-120]	; 0x78
    2444:	e3a03000 	mov	r3, #0
    2448:	e51b606c 	ldr	r6, [fp, #-108]	; 0x6c
    244c:	e51b4070 	ldr	r4, [fp, #-112]	; 0x70
    2450:	e58c2000 	str	r2, [ip]
    2454:	e58c3004 	str	r3, [ip, #4]
    2458:	e08c0004 	add	r0, ip, r4
    245c:	e5962004 	ldr	r2, [r6, #4]
    2460:	e0861004 	add	r1, r6, r4
    2464:	e51bc07c 	ldr	ip, [fp, #-124]	; 0x7c
    2468:	e58c2000 	str	r2, [ip]
    246c:	e08c2004 	add	r2, ip, r4
    2470:	e58c3004 	str	r3, [ip, #4]
    2474:	e591c000 	ldr	ip, [r1]
    2478:	e5803004 	str	r3, [r0, #4]
    247c:	e580c000 	str	ip, [r0]
    2480:	e5911004 	ldr	r1, [r1, #4]
    2484:	e5823004 	str	r3, [r2, #4]
    2488:	e5821000 	str	r1, [r2]
    248c:	e24bd020 	sub	sp, fp, #32
    2490:	e8bd8ff0 	pop	{r4, r5, r6, r7, r8, r9, sl, fp, pc}
    2494:	e35c0001 	cmp	ip, #1
    2498:	0a00006b 	beq	264c <realFFT+0x3e4>
    249c:	e50b1044 	str	r1, [fp, #-68]	; 0x44
    24a0:	da00004d 	ble	25dc <realFFT+0x374>
    24a4:	e51bc068 	ldr	ip, [fp, #-104]	; 0x68
    24a8:	e3053555 	movw	r3, #21845	; 0x5555
    24ac:	e3453555 	movt	r3, #21845	; 0x5555
    24b0:	e50b8058 	str	r8, [fp, #-88]	; 0x58
    24b4:	e00c3003 	and	r3, ip, r3
    24b8:	e2733001 	rsbs	r3, r3, #1
    24bc:	e1a020cc 	asr	r2, ip, #1
    24c0:	33a03000 	movcc	r3, #0
    24c4:	e1a02182 	lsl	r2, r2, #3
    24c8:	e50b3060 	str	r3, [fp, #-96]	; 0x60
    24cc:	e50b2070 	str	r2, [fp, #-112]	; 0x70
    24d0:	e51b4060 	ldr	r4, [fp, #-96]	; 0x60
    24d4:	e51bc074 	ldr	ip, [fp, #-116]	; 0x74
    24d8:	e3140001 	tst	r4, #1
    24dc:	e51b406c 	ldr	r4, [fp, #-108]	; 0x6c
    24e0:	11a0c004 	movne	ip, r4
    24e4:	e3560000 	cmp	r6, #0
    24e8:	e51b4070 	ldr	r4, [fp, #-112]	; 0x70
    24ec:	d1a06086 	lslle	r6, r6, #1
    24f0:	e50bc05c 	str	ip, [fp, #-92]	; 0x5c
    24f4:	e08c3004 	add	r3, ip, r4
    24f8:	e50bc03c 	str	ip, [fp, #-60]	; 0x3c
    24fc:	e50b3034 	str	r3, [fp, #-52]	; 0x34
    2500:	d50b6064 	strle	r6, [fp, #-100]	; 0x64
    2504:	da00002b 	ble	25b8 <realFFT+0x350>
    2508:	e1a0c086 	lsl	ip, r6, #1
    250c:	e51b0068 	ldr	r0, [fp, #-104]	; 0x68
    2510:	e50bc064 	str	ip, [fp, #-100]	; 0x64
    2514:	e3a04000 	mov	r4, #0
    2518:	e1a0100c 	mov	r1, ip
    251c:	e24b803c 	sub	r8, fp, #60	; 0x3c
    2520:	eb000ecc 	bl	6058 <__aeabi_idiv>
    2524:	e24ba034 	sub	sl, fp, #52	; 0x34
    2528:	e1a05004 	mov	r5, r4
    252c:	e50b607c 	str	r6, [fp, #-124]	; 0x7c
    2530:	e1a09180 	lsl	r9, r0, #3
    2534:	e1a07000 	mov	r7, r0
    2538:	e1a0c100 	lsl	ip, r0, #2
    253c:	e50bc048 	str	ip, [fp, #-72]	; 0x48
    2540:	e24bc028 	sub	ip, fp, #40	; 0x28
    2544:	e50bc050 	str	ip, [fp, #-80]	; 0x50
    2548:	e24bc02c 	sub	ip, fp, #44	; 0x2c
    254c:	e50bc04c 	str	ip, [fp, #-76]	; 0x4c
    2550:	e51b6054 	ldr	r6, [fp, #-84]	; 0x54
    2554:	e1a0300a 	mov	r3, sl
    2558:	e24b0044 	sub	r0, fp, #68	; 0x44
    255c:	e1a01007 	mov	r1, r7
    2560:	e086e004 	add	lr, r6, r4
    2564:	e51b6058 	ldr	r6, [fp, #-88]	; 0x58
    2568:	e1a02008 	mov	r2, r8
    256c:	e2855001 	add	r5, r5, #1
    2570:	e59ee000 	ldr	lr, [lr]
    2574:	e086c004 	add	ip, r6, r4
    2578:	e51b6050 	ldr	r6, [fp, #-80]	; 0x50
    257c:	e50be028 	str	lr, [fp, #-40]	; 0x28
    2580:	e59cc000 	ldr	ip, [ip]
    2584:	e58d6000 	str	r6, [sp]
    2588:	e51b6048 	ldr	r6, [fp, #-72]	; 0x48
    258c:	e50bc02c 	str	ip, [fp, #-44]	; 0x2c
    2590:	e51bc04c 	ldr	ip, [fp, #-76]	; 0x4c
    2594:	e0844006 	add	r4, r4, r6
    2598:	e58dc004 	str	ip, [sp, #4]
    259c:	eb000c03 	bl	55b0 <bucleMedioFftASM>
    25a0:	e51b607c 	ldr	r6, [fp, #-124]	; 0x7c
    25a4:	e51b3044 	ldr	r3, [fp, #-68]	; 0x44
    25a8:	e1550006 	cmp	r5, r6
    25ac:	e0833009 	add	r3, r3, r9
    25b0:	e50b3044 	str	r3, [fp, #-68]	; 0x44
    25b4:	1affffe5 	bne	2550 <realFFT+0x2e8>
    25b8:	e51bc068 	ldr	ip, [fp, #-104]	; 0x68
    25bc:	e51b6064 	ldr	r6, [fp, #-100]	; 0x64
    25c0:	e51b405c 	ldr	r4, [fp, #-92]	; 0x5c
    25c4:	e15c0006 	cmp	ip, r6
    25c8:	e51bc060 	ldr	ip, [fp, #-96]	; 0x60
    25cc:	e50b4044 	str	r4, [fp, #-68]	; 0x44
    25d0:	e28cc001 	add	ip, ip, #1
    25d4:	e50bc060 	str	ip, [fp, #-96]	; 0x60
    25d8:	caffffbc 	bgt	24d0 <realFFT+0x268>
    25dc:	e51bc06c 	ldr	ip, [fp, #-108]	; 0x6c
    25e0:	e51b6068 	ldr	r6, [fp, #-104]	; 0x68
    25e4:	e51b2084 	ldr	r2, [fp, #-132]	; 0x84
    25e8:	e59c3000 	ldr	r3, [ip]
    25ec:	e1a04186 	lsl	r4, r6, #3
    25f0:	e1a0600c 	mov	r6, ip
    25f4:	e08c1004 	add	r1, ip, r4
    25f8:	e1a00006 	mov	r0, r6
    25fc:	e5813000 	str	r3, [r1]
    2600:	e59cc004 	ldr	ip, [ip, #4]
    2604:	e51b3078 	ldr	r3, [fp, #-120]	; 0x78
    2608:	e581c004 	str	ip, [r1, #4]
    260c:	e51bc068 	ldr	ip, [fp, #-104]	; 0x68
    2610:	e51b1080 	ldr	r1, [fp, #-128]	; 0x80
    2614:	e58dc000 	str	ip, [sp]
    2618:	eb000c25 	bl	56b4 <splitMonoASM>
    261c:	e51b0078 	ldr	r0, [fp, #-120]	; 0x78
    2620:	e51b1068 	ldr	r1, [fp, #-104]	; 0x68
    2624:	eb000c6a 	bl	57d4 <bucleEspectroMonoASM>
    2628:	ed967a00 	vldr	s14, [r6]
    262c:	edd67a01 	vldr	s15, [r6, #4]
    2630:	ee777a67 	vsub.f32	s15, s14, s15
    2634:	e51b6078 	ldr	r6, [fp, #-120]	; 0x78
    2638:	e3a03000 	mov	r3, #0
    263c:	e0864004 	add	r4, r6, r4
    2640:	e5843004 	str	r3, [r4, #4]
    2644:	edc47a00 	vstr	s15, [r4]
    2648:	eaffff8f 	b	248c <realFFT+0x224>
    264c:	e8910003 	ldm	r1, {r0, r1}
    2650:	e51b406c 	ldr	r4, [fp, #-108]	; 0x6c
    2654:	e8840003 	stm	r4, {r0, r1}
    2658:	eaffffdf 	b	25dc <realFFT+0x374>
    265c:	e8910003 	ldm	r1, {r0, r1}
    2660:	e3a04000 	mov	r4, #0
    2664:	e51b606c 	ldr	r6, [fp, #-108]	; 0x6c
    2668:	e50b4070 	str	r4, [fp, #-112]	; 0x70
    266c:	e8860003 	stm	r6, {r0, r1}
    2670:	eaffff65 	b	240c <realFFT+0x1a4>
    2674:	e51bc068 	ldr	ip, [fp, #-104]	; 0x68
    2678:	e08c3fac 	add	r3, ip, ip, lsr #31
    267c:	e1a030c3 	asr	r3, r3, #1
    2680:	e1a03183 	lsl	r3, r3, #3
    2684:	e50b3070 	str	r3, [fp, #-112]	; 0x70
    2688:	eaffff5f 	b	240c <realFFT+0x1a4>

0000268c <realIFFT>:
    268c:	e92d4ff0 	push	{r4, r5, r6, r7, r8, r9, sl, fp, lr}
    2690:	e28db020 	add	fp, sp, #32
    2694:	e24dd064 	sub	sp, sp, #100	; 0x64
    2698:	e50b1078 	str	r1, [fp, #-120]	; 0x78
    269c:	e1a01002 	mov	r1, r2
    26a0:	e590c004 	ldr	ip, [r0, #4]
    26a4:	e5906000 	ldr	r6, [r0]
    26a8:	e5908018 	ldr	r8, [r0, #24]
    26ac:	e50bc068 	str	ip, [fp, #-104]	; 0x68
    26b0:	e3560001 	cmp	r6, #1
    26b4:	e590c00c 	ldr	ip, [r0, #12]
    26b8:	e5902028 	ldr	r2, [r0, #40]	; 0x28
    26bc:	e50bc06c 	str	ip, [fp, #-108]	; 0x6c
    26c0:	e590c010 	ldr	ip, [r0, #16]
    26c4:	e50bc070 	str	ip, [fp, #-112]	; 0x70
    26c8:	e590c014 	ldr	ip, [r0, #20]
    26cc:	e50bc054 	str	ip, [fp, #-84]	; 0x54
    26d0:	e590c024 	ldr	ip, [r0, #36]	; 0x24
    26d4:	0a00005e 	beq	2854 <realIFFT+0x1c8>
    26d8:	e1a02003 	mov	r2, r3
    26dc:	e51b0078 	ldr	r0, [fp, #-120]	; 0x78
    26e0:	e51b3068 	ldr	r3, [fp, #-104]	; 0x68
    26e4:	eb000c5c 	bl	585c <rIFFTyaosASM_1>
    26e8:	e51b6068 	ldr	r6, [fp, #-104]	; 0x68
    26ec:	e51bc078 	ldr	ip, [fp, #-120]	; 0x78
    26f0:	e3560001 	cmp	r6, #1
    26f4:	0a0000bc 	beq	29ec <realIFFT+0x360>
    26f8:	e50bc044 	str	ip, [fp, #-68]	; 0x44
    26fc:	da00004e 	ble	283c <realIFFT+0x1b0>
    2700:	e51b6068 	ldr	r6, [fp, #-104]	; 0x68
    2704:	e3053555 	movw	r3, #21845	; 0x5555
    2708:	e3453555 	movt	r3, #21845	; 0x5555
    270c:	e50b8058 	str	r8, [fp, #-88]	; 0x58
    2710:	e0063003 	and	r3, r6, r3
    2714:	e2733001 	rsbs	r3, r3, #1
    2718:	e1a020c6 	asr	r2, r6, #1
    271c:	e3a06001 	mov	r6, #1
    2720:	33a03000 	movcc	r3, #0
    2724:	e1a02182 	lsl	r2, r2, #3
    2728:	e1a0c003 	mov	ip, r3
    272c:	e50b2074 	str	r2, [fp, #-116]	; 0x74
    2730:	e50b3060 	str	r3, [fp, #-96]	; 0x60
    2734:	e31c0001 	tst	ip, #1
    2738:	e51be06c 	ldr	lr, [fp, #-108]	; 0x6c
    273c:	e51bc070 	ldr	ip, [fp, #-112]	; 0x70
    2740:	e51b1074 	ldr	r1, [fp, #-116]	; 0x74
    2744:	11a0c00e 	movne	ip, lr
    2748:	e3560000 	cmp	r6, #0
    274c:	e08c3001 	add	r3, ip, r1
    2750:	d1a06086 	lslle	r6, r6, #1
    2754:	e50bc05c 	str	ip, [fp, #-92]	; 0x5c
    2758:	e50bc03c 	str	ip, [fp, #-60]	; 0x3c
    275c:	e50b3034 	str	r3, [fp, #-52]	; 0x34
    2760:	d50b6064 	strle	r6, [fp, #-100]	; 0x64
    2764:	da00002b 	ble	2818 <realIFFT+0x18c>
    2768:	e1a0c086 	lsl	ip, r6, #1
    276c:	e51b0068 	ldr	r0, [fp, #-104]	; 0x68
    2770:	e50bc064 	str	ip, [fp, #-100]	; 0x64
    2774:	e3a04000 	mov	r4, #0
    2778:	e1a0100c 	mov	r1, ip
    277c:	e24b803c 	sub	r8, fp, #60	; 0x3c
    2780:	eb000e34 	bl	6058 <__aeabi_idiv>
    2784:	e24ba034 	sub	sl, fp, #52	; 0x34
    2788:	e1a05004 	mov	r5, r4
    278c:	e50b607c 	str	r6, [fp, #-124]	; 0x7c
    2790:	e1a09180 	lsl	r9, r0, #3
    2794:	e1a07000 	mov	r7, r0
    2798:	e1a0c100 	lsl	ip, r0, #2
    279c:	e50bc048 	str	ip, [fp, #-72]	; 0x48
    27a0:	e24bc028 	sub	ip, fp, #40	; 0x28
    27a4:	e50bc050 	str	ip, [fp, #-80]	; 0x50
    27a8:	e24bc02c 	sub	ip, fp, #44	; 0x2c
    27ac:	e50bc04c 	str	ip, [fp, #-76]	; 0x4c
    27b0:	e51b6054 	ldr	r6, [fp, #-84]	; 0x54
    27b4:	e1a0300a 	mov	r3, sl
    27b8:	e24b0044 	sub	r0, fp, #68	; 0x44
    27bc:	e1a01007 	mov	r1, r7
    27c0:	e086e004 	add	lr, r6, r4
    27c4:	e51b6058 	ldr	r6, [fp, #-88]	; 0x58
    27c8:	e1a02008 	mov	r2, r8
    27cc:	e2855001 	add	r5, r5, #1
    27d0:	e59ee000 	ldr	lr, [lr]
    27d4:	e086c004 	add	ip, r6, r4
    27d8:	e51b6050 	ldr	r6, [fp, #-80]	; 0x50
    27dc:	e50be028 	str	lr, [fp, #-40]	; 0x28
    27e0:	e59cc000 	ldr	ip, [ip]
    27e4:	e58d6000 	str	r6, [sp]
    27e8:	e51b6048 	ldr	r6, [fp, #-72]	; 0x48
    27ec:	e50bc02c 	str	ip, [fp, #-44]	; 0x2c
    27f0:	e51bc04c 	ldr	ip, [fp, #-76]	; 0x4c
    27f4:	e0844006 	add	r4, r4, r6
    27f8:	e58dc004 	str	ip, [sp, #4]
    27fc:	eb000b6b 	bl	55b0 <bucleMedioFftASM>
    2800:	e51b607c 	ldr	r6, [fp, #-124]	; 0x7c
    2804:	e51b3044 	ldr	r3, [fp, #-68]	; 0x44
    2808:	e1550006 	cmp	r5, r6
    280c:	e0833009 	add	r3, r3, r9
    2810:	e50b3044 	str	r3, [fp, #-68]	; 0x44
    2814:	1affffe5 	bne	27b0 <realIFFT+0x124>
    2818:	e51bc068 	ldr	ip, [fp, #-104]	; 0x68
    281c:	e51b6064 	ldr	r6, [fp, #-100]	; 0x64
    2820:	e15c0006 	cmp	ip, r6
    2824:	e51bc05c 	ldr	ip, [fp, #-92]	; 0x5c
    2828:	e50bc044 	str	ip, [fp, #-68]	; 0x44
    282c:	e51bc060 	ldr	ip, [fp, #-96]	; 0x60
    2830:	e28cc001 	add	ip, ip, #1
    2834:	e50bc060 	str	ip, [fp, #-96]	; 0x60
    2838:	caffffbd 	bgt	2734 <realIFFT+0xa8>
    283c:	e51b0078 	ldr	r0, [fp, #-120]	; 0x78
    2840:	e51b106c 	ldr	r1, [fp, #-108]	; 0x6c
    2844:	e51b2068 	ldr	r2, [fp, #-104]	; 0x68
    2848:	eb000c0e 	bl	5888 <rIFFTyaosASM_2>
    284c:	e24bd020 	sub	sp, fp, #32
    2850:	e8bd8ff0 	pop	{r4, r5, r6, r7, r8, r9, sl, fp, pc}
    2854:	e1a00001 	mov	r0, r1
    2858:	e1a0100c 	mov	r1, ip
    285c:	e51bc068 	ldr	ip, [fp, #-104]	; 0x68
    2860:	e51b306c 	ldr	r3, [fp, #-108]	; 0x6c
    2864:	e58dc000 	str	ip, [sp]
    2868:	eb000b91 	bl	56b4 <splitMonoASM>
    286c:	e51b006c 	ldr	r0, [fp, #-108]	; 0x6c
    2870:	e51b1068 	ldr	r1, [fp, #-104]	; 0x68
    2874:	eb000be1 	bl	5800 <rIFFTyaomASM_1>
    2878:	e51bc068 	ldr	ip, [fp, #-104]	; 0x68
    287c:	e35c0001 	cmp	ip, #1
    2880:	0a000054 	beq	29d8 <realIFFT+0x34c>
    2884:	e51bc06c 	ldr	ip, [fp, #-108]	; 0x6c
    2888:	e50bc044 	str	ip, [fp, #-68]	; 0x44
    288c:	da00004d 	ble	29c8 <realIFFT+0x33c>
    2890:	e51bc068 	ldr	ip, [fp, #-104]	; 0x68
    2894:	e3053555 	movw	r3, #21845	; 0x5555
    2898:	e3453555 	movt	r3, #21845	; 0x5555
    289c:	e50b8058 	str	r8, [fp, #-88]	; 0x58
    28a0:	e00c3003 	and	r3, ip, r3
    28a4:	e2733001 	rsbs	r3, r3, #1
    28a8:	e1a020cc 	asr	r2, ip, #1
    28ac:	33a03000 	movcc	r3, #0
    28b0:	e1a02182 	lsl	r2, r2, #3
    28b4:	e1a0c003 	mov	ip, r3
    28b8:	e50b206c 	str	r2, [fp, #-108]	; 0x6c
    28bc:	e50b3060 	str	r3, [fp, #-96]	; 0x60
    28c0:	e31c0001 	tst	ip, #1
    28c4:	e51be078 	ldr	lr, [fp, #-120]	; 0x78
    28c8:	e51bc070 	ldr	ip, [fp, #-112]	; 0x70
    28cc:	e51b106c 	ldr	r1, [fp, #-108]	; 0x6c
    28d0:	11a0c00e 	movne	ip, lr
    28d4:	e3560000 	cmp	r6, #0
    28d8:	e08c3001 	add	r3, ip, r1
    28dc:	d1a06086 	lslle	r6, r6, #1
    28e0:	e50bc05c 	str	ip, [fp, #-92]	; 0x5c
    28e4:	e50bc03c 	str	ip, [fp, #-60]	; 0x3c
    28e8:	e50b3034 	str	r3, [fp, #-52]	; 0x34
    28ec:	d50b6064 	strle	r6, [fp, #-100]	; 0x64
    28f0:	da00002b 	ble	29a4 <realIFFT+0x318>
    28f4:	e1a0c086 	lsl	ip, r6, #1
    28f8:	e51b0068 	ldr	r0, [fp, #-104]	; 0x68
    28fc:	e50bc064 	str	ip, [fp, #-100]	; 0x64
    2900:	e3a04000 	mov	r4, #0
    2904:	e1a0100c 	mov	r1, ip
    2908:	e24b803c 	sub	r8, fp, #60	; 0x3c
    290c:	eb000dd1 	bl	6058 <__aeabi_idiv>
    2910:	e24ba034 	sub	sl, fp, #52	; 0x34
    2914:	e1a05004 	mov	r5, r4
    2918:	e50b6074 	str	r6, [fp, #-116]	; 0x74
    291c:	e1a09180 	lsl	r9, r0, #3
    2920:	e1a07000 	mov	r7, r0
    2924:	e1a0c100 	lsl	ip, r0, #2
    2928:	e50bc048 	str	ip, [fp, #-72]	; 0x48
    292c:	e24bc028 	sub	ip, fp, #40	; 0x28
    2930:	e50bc050 	str	ip, [fp, #-80]	; 0x50
    2934:	e24bc02c 	sub	ip, fp, #44	; 0x2c
    2938:	e50bc04c 	str	ip, [fp, #-76]	; 0x4c
    293c:	e51b6054 	ldr	r6, [fp, #-84]	; 0x54
    2940:	e1a0300a 	mov	r3, sl
    2944:	e24b0044 	sub	r0, fp, #68	; 0x44
    2948:	e1a01007 	mov	r1, r7
    294c:	e086e004 	add	lr, r6, r4
    2950:	e51b6058 	ldr	r6, [fp, #-88]	; 0x58
    2954:	e1a02008 	mov	r2, r8
    2958:	e2855001 	add	r5, r5, #1
    295c:	e59ee000 	ldr	lr, [lr]
    2960:	e086c004 	add	ip, r6, r4
    2964:	e51b6050 	ldr	r6, [fp, #-80]	; 0x50
    2968:	e50be028 	str	lr, [fp, #-40]	; 0x28
    296c:	e59cc000 	ldr	ip, [ip]
    2970:	e58d6000 	str	r6, [sp]
    2974:	e51b6048 	ldr	r6, [fp, #-72]	; 0x48
    2978:	e50bc02c 	str	ip, [fp, #-44]	; 0x2c
    297c:	e51bc04c 	ldr	ip, [fp, #-76]	; 0x4c
    2980:	e0844006 	add	r4, r4, r6
    2984:	e58dc004 	str	ip, [sp, #4]
    2988:	eb000b08 	bl	55b0 <bucleMedioFftASM>
    298c:	e51b6074 	ldr	r6, [fp, #-116]	; 0x74
    2990:	e51b3044 	ldr	r3, [fp, #-68]	; 0x44
    2994:	e1550006 	cmp	r5, r6
    2998:	e0833009 	add	r3, r3, r9
    299c:	e50b3044 	str	r3, [fp, #-68]	; 0x44
    29a0:	1affffe5 	bne	293c <realIFFT+0x2b0>
    29a4:	e51bc068 	ldr	ip, [fp, #-104]	; 0x68
    29a8:	e51b6064 	ldr	r6, [fp, #-100]	; 0x64
    29ac:	e15c0006 	cmp	ip, r6
    29b0:	e51bc05c 	ldr	ip, [fp, #-92]	; 0x5c
    29b4:	e50bc044 	str	ip, [fp, #-68]	; 0x44
    29b8:	e51bc060 	ldr	ip, [fp, #-96]	; 0x60
    29bc:	e28cc001 	add	ip, ip, #1
    29c0:	e50bc060 	str	ip, [fp, #-96]	; 0x60
    29c4:	caffffbd 	bgt	28c0 <realIFFT+0x234>
    29c8:	e51b0078 	ldr	r0, [fp, #-120]	; 0x78
    29cc:	e51b1068 	ldr	r1, [fp, #-104]	; 0x68
    29d0:	eb000b92 	bl	5820 <rIFFTyaomASM_2>
    29d4:	eaffff9c 	b	284c <realIFFT+0x1c0>
    29d8:	e51b606c 	ldr	r6, [fp, #-108]	; 0x6c
    29dc:	e51bc078 	ldr	ip, [fp, #-120]	; 0x78
    29e0:	e8960003 	ldm	r6, {r0, r1}
    29e4:	e88c0003 	stm	ip, {r0, r1}
    29e8:	eafffff6 	b	29c8 <realIFFT+0x33c>
    29ec:	e89c0003 	ldm	ip, {r0, r1}
    29f0:	e51b606c 	ldr	r6, [fp, #-108]	; 0x6c
    29f4:	e8860003 	stm	r6, {r0, r1}
    29f8:	eaffff8f 	b	283c <realIFFT+0x1b0>

000029fc <complexFFT>:
    29fc:	e92d4ff0 	push	{r4, r5, r6, r7, r8, r9, sl, fp, lr}
    2a00:	e28db020 	add	fp, sp, #32
    2a04:	e24dd054 	sub	sp, sp, #84	; 0x54
    2a08:	e50b2060 	str	r2, [fp, #-96]	; 0x60
    2a0c:	e5909004 	ldr	r9, [r0, #4]
    2a10:	e590c010 	ldr	ip, [r0, #16]
    2a14:	e3590001 	cmp	r9, #1
    2a18:	e50b905c 	str	r9, [fp, #-92]	; 0x5c
    2a1c:	e5909014 	ldr	r9, [r0, #20]
    2a20:	e5900018 	ldr	r0, [r0, #24]
    2a24:	e50bc064 	str	ip, [fp, #-100]	; 0x64
    2a28:	e50b9048 	str	r9, [fp, #-72]	; 0x48
    2a2c:	e50b004c 	str	r0, [fp, #-76]	; 0x4c
    2a30:	0a000047 	beq	2b54 <complexFFT+0x158>
    2a34:	e50b1044 	str	r1, [fp, #-68]	; 0x44
    2a38:	da000043 	ble	2b4c <complexFFT+0x150>
    2a3c:	e51bc05c 	ldr	ip, [fp, #-92]	; 0x5c
    2a40:	e3053555 	movw	r3, #21845	; 0x5555
    2a44:	e3453555 	movt	r3, #21845	; 0x5555
    2a48:	e3a06001 	mov	r6, #1
    2a4c:	e00c3003 	and	r3, ip, r3
    2a50:	e2733001 	rsbs	r3, r3, #1
    2a54:	e1a020cc 	asr	r2, ip, #1
    2a58:	33a03000 	movcc	r3, #0
    2a5c:	e1a02182 	lsl	r2, r2, #3
    2a60:	e50b3054 	str	r3, [fp, #-84]	; 0x54
    2a64:	e50b2068 	str	r2, [fp, #-104]	; 0x68
    2a68:	e51b9054 	ldr	r9, [fp, #-84]	; 0x54
    2a6c:	e51bc064 	ldr	ip, [fp, #-100]	; 0x64
    2a70:	e3190001 	tst	r9, #1
    2a74:	e51b9060 	ldr	r9, [fp, #-96]	; 0x60
    2a78:	11a0c009 	movne	ip, r9
    2a7c:	e3560000 	cmp	r6, #0
    2a80:	e51b9068 	ldr	r9, [fp, #-104]	; 0x68
    2a84:	d1a06086 	lslle	r6, r6, #1
    2a88:	e50bc050 	str	ip, [fp, #-80]	; 0x50
    2a8c:	e08c3009 	add	r3, ip, r9
    2a90:	e50bc03c 	str	ip, [fp, #-60]	; 0x3c
    2a94:	e50b3034 	str	r3, [fp, #-52]	; 0x34
    2a98:	d50b6058 	strle	r6, [fp, #-88]	; 0x58
    2a9c:	da000021 	ble	2b28 <complexFFT+0x12c>
    2aa0:	e1a0c086 	lsl	ip, r6, #1
    2aa4:	e51b005c 	ldr	r0, [fp, #-92]	; 0x5c
    2aa8:	e50bc058 	str	ip, [fp, #-88]	; 0x58
    2aac:	e3a04000 	mov	r4, #0
    2ab0:	e1a0100c 	mov	r1, ip
    2ab4:	e1a05004 	mov	r5, r4
    2ab8:	eb000d66 	bl	6058 <__aeabi_idiv>
    2abc:	e1a08180 	lsl	r8, r0, #3
    2ac0:	e1a0a100 	lsl	sl, r0, #2
    2ac4:	e1a07000 	mov	r7, r0
    2ac8:	e51b9048 	ldr	r9, [fp, #-72]	; 0x48
    2acc:	e24b3034 	sub	r3, fp, #52	; 0x34
    2ad0:	e24b0044 	sub	r0, fp, #68	; 0x44
    2ad4:	e1a01007 	mov	r1, r7
    2ad8:	e089e004 	add	lr, r9, r4
    2adc:	e51b904c 	ldr	r9, [fp, #-76]	; 0x4c
    2ae0:	e24b203c 	sub	r2, fp, #60	; 0x3c
    2ae4:	e2855001 	add	r5, r5, #1
    2ae8:	e59ee000 	ldr	lr, [lr]
    2aec:	e089c004 	add	ip, r9, r4
    2af0:	e24b902c 	sub	r9, fp, #44	; 0x2c
    2af4:	e084400a 	add	r4, r4, sl
    2af8:	e50be028 	str	lr, [fp, #-40]	; 0x28
    2afc:	e24be028 	sub	lr, fp, #40	; 0x28
    2b00:	e59cc000 	ldr	ip, [ip]
    2b04:	e58de000 	str	lr, [sp]
    2b08:	e58d9004 	str	r9, [sp, #4]
    2b0c:	e50bc02c 	str	ip, [fp, #-44]	; 0x2c
    2b10:	eb000aa6 	bl	55b0 <bucleMedioFftASM>
    2b14:	e51b3044 	ldr	r3, [fp, #-68]	; 0x44
    2b18:	e1550006 	cmp	r5, r6
    2b1c:	e0833008 	add	r3, r3, r8
    2b20:	e50b3044 	str	r3, [fp, #-68]	; 0x44
    2b24:	1affffe7 	bne	2ac8 <complexFFT+0xcc>
    2b28:	e51bc05c 	ldr	ip, [fp, #-92]	; 0x5c
    2b2c:	e51b6058 	ldr	r6, [fp, #-88]	; 0x58
    2b30:	e51b9050 	ldr	r9, [fp, #-80]	; 0x50
    2b34:	e15c0006 	cmp	ip, r6
    2b38:	e51bc054 	ldr	ip, [fp, #-84]	; 0x54
    2b3c:	e50b9044 	str	r9, [fp, #-68]	; 0x44
    2b40:	e28cc001 	add	ip, ip, #1
    2b44:	e50bc054 	str	ip, [fp, #-84]	; 0x54
    2b48:	caffffc6 	bgt	2a68 <complexFFT+0x6c>
    2b4c:	e24bd020 	sub	sp, fp, #32
    2b50:	e8bd8ff0 	pop	{r4, r5, r6, r7, r8, r9, sl, fp, pc}
    2b54:	e8910003 	ldm	r1, {r0, r1}
    2b58:	e8820003 	stm	r2, {r0, r1}
    2b5c:	eafffffa 	b	2b4c <complexFFT+0x150>

00002b60 <complexIFFT>:
    2b60:	e92d4ff0 	push	{r4, r5, r6, r7, r8, r9, sl, fp, lr}
    2b64:	e28db020 	add	fp, sp, #32
    2b68:	e24dd05c 	sub	sp, sp, #92	; 0x5c
    2b6c:	e50b1060 	str	r1, [fp, #-96]	; 0x60
    2b70:	e50b2070 	str	r2, [fp, #-112]	; 0x70
    2b74:	e5909004 	ldr	r9, [r0, #4]
    2b78:	e3590000 	cmp	r9, #0
    2b7c:	e50b906c 	str	r9, [fp, #-108]	; 0x6c
    2b80:	da00007a 	ble	2d70 <complexIFFT+0x210>
    2b84:	e1a03002 	mov	r3, r2
    2b88:	e1a01009 	mov	r1, r9
    2b8c:	e3a02000 	mov	r2, #0
    2b90:	edd37a01 	vldr	s15, [r3, #4]
    2b94:	eef17a67 	vneg.f32	s15, s15
    2b98:	e2822001 	add	r2, r2, #1
    2b9c:	e1520001 	cmp	r2, r1
    2ba0:	edc37a01 	vstr	s15, [r3, #4]
    2ba4:	e2833008 	add	r3, r3, #8
    2ba8:	1afffff8 	bne	2b90 <complexIFFT+0x30>
    2bac:	e590c004 	ldr	ip, [r0, #4]
    2bb0:	e5909010 	ldr	r9, [r0, #16]
    2bb4:	e35c0001 	cmp	ip, #1
    2bb8:	e50bc05c 	str	ip, [fp, #-92]	; 0x5c
    2bbc:	e590c014 	ldr	ip, [r0, #20]
    2bc0:	e5900018 	ldr	r0, [r0, #24]
    2bc4:	e50b9064 	str	r9, [fp, #-100]	; 0x64
    2bc8:	e50bc048 	str	ip, [fp, #-72]	; 0x48
    2bcc:	e50b004c 	str	r0, [fp, #-76]	; 0x4c
    2bd0:	0a000061 	beq	2d5c <complexIFFT+0x1fc>
    2bd4:	e51bc05c 	ldr	ip, [fp, #-92]	; 0x5c
    2bd8:	e51b9070 	ldr	r9, [fp, #-112]	; 0x70
    2bdc:	e35c0001 	cmp	ip, #1
    2be0:	e50b9044 	str	r9, [fp, #-68]	; 0x44
    2be4:	da000042 	ble	2cf4 <complexIFFT+0x194>
    2be8:	e3053555 	movw	r3, #21845	; 0x5555
    2bec:	e3453555 	movt	r3, #21845	; 0x5555
    2bf0:	e00c3003 	and	r3, ip, r3
    2bf4:	e1a020cc 	asr	r2, ip, #1
    2bf8:	e2733001 	rsbs	r3, r3, #1
    2bfc:	e3a06001 	mov	r6, #1
    2c00:	e1a02182 	lsl	r2, r2, #3
    2c04:	e50b2068 	str	r2, [fp, #-104]	; 0x68
    2c08:	33a03000 	movcc	r3, #0
    2c0c:	e50b3054 	str	r3, [fp, #-84]	; 0x54
    2c10:	e1a0c003 	mov	ip, r3
    2c14:	e31c0001 	tst	ip, #1
    2c18:	e51b9064 	ldr	r9, [fp, #-100]	; 0x64
    2c1c:	e51bc060 	ldr	ip, [fp, #-96]	; 0x60
    2c20:	11a0900c 	movne	r9, ip
    2c24:	e3560000 	cmp	r6, #0
    2c28:	e51bc068 	ldr	ip, [fp, #-104]	; 0x68
    2c2c:	d1a06086 	lslle	r6, r6, #1
    2c30:	e50b9050 	str	r9, [fp, #-80]	; 0x50
    2c34:	e089300c 	add	r3, r9, ip
    2c38:	e50b903c 	str	r9, [fp, #-60]	; 0x3c
    2c3c:	e50b3034 	str	r3, [fp, #-52]	; 0x34
    2c40:	d50b6058 	strle	r6, [fp, #-88]	; 0x58
    2c44:	da000021 	ble	2cd0 <complexIFFT+0x170>
    2c48:	e1a09086 	lsl	r9, r6, #1
    2c4c:	e51b005c 	ldr	r0, [fp, #-92]	; 0x5c
    2c50:	e50b9058 	str	r9, [fp, #-88]	; 0x58
    2c54:	e3a04000 	mov	r4, #0
    2c58:	e1a01009 	mov	r1, r9
    2c5c:	e1a05004 	mov	r5, r4
    2c60:	eb000cfc 	bl	6058 <__aeabi_idiv>
    2c64:	e1a08180 	lsl	r8, r0, #3
    2c68:	e1a0a100 	lsl	sl, r0, #2
    2c6c:	e1a07000 	mov	r7, r0
    2c70:	e51bc048 	ldr	ip, [fp, #-72]	; 0x48
    2c74:	e24b3034 	sub	r3, fp, #52	; 0x34
    2c78:	e51b904c 	ldr	r9, [fp, #-76]	; 0x4c
    2c7c:	e24b0044 	sub	r0, fp, #68	; 0x44
    2c80:	e08ce004 	add	lr, ip, r4
    2c84:	e1a01007 	mov	r1, r7
    2c88:	e089c004 	add	ip, r9, r4
    2c8c:	e24b203c 	sub	r2, fp, #60	; 0x3c
    2c90:	e59ee000 	ldr	lr, [lr]
    2c94:	e2855001 	add	r5, r5, #1
    2c98:	e24b902c 	sub	r9, fp, #44	; 0x2c
    2c9c:	e084400a 	add	r4, r4, sl
    2ca0:	e50be028 	str	lr, [fp, #-40]	; 0x28
    2ca4:	e24be028 	sub	lr, fp, #40	; 0x28
    2ca8:	e59cc000 	ldr	ip, [ip]
    2cac:	e58de000 	str	lr, [sp]
    2cb0:	e58d9004 	str	r9, [sp, #4]
    2cb4:	e50bc02c 	str	ip, [fp, #-44]	; 0x2c
    2cb8:	eb000a3c 	bl	55b0 <bucleMedioFftASM>
    2cbc:	e51b3044 	ldr	r3, [fp, #-68]	; 0x44
    2cc0:	e1550006 	cmp	r5, r6
    2cc4:	e0833008 	add	r3, r3, r8
    2cc8:	e50b3044 	str	r3, [fp, #-68]	; 0x44
    2ccc:	1affffe7 	bne	2c70 <complexIFFT+0x110>
    2cd0:	e51bc05c 	ldr	ip, [fp, #-92]	; 0x5c
    2cd4:	e51b6058 	ldr	r6, [fp, #-88]	; 0x58
    2cd8:	e51b9050 	ldr	r9, [fp, #-80]	; 0x50
    2cdc:	e15c0006 	cmp	ip, r6
    2ce0:	e51bc054 	ldr	ip, [fp, #-84]	; 0x54
    2ce4:	e50b9044 	str	r9, [fp, #-68]	; 0x44
    2ce8:	e28cc001 	add	ip, ip, #1
    2cec:	e50bc054 	str	ip, [fp, #-84]	; 0x54
    2cf0:	caffffc7 	bgt	2c14 <complexIFFT+0xb4>
    2cf4:	e51b906c 	ldr	r9, [fp, #-108]	; 0x6c
    2cf8:	e3590000 	cmp	r9, #0
    2cfc:	da000014 	ble	2d54 <complexIFFT+0x1f4>
    2d00:	ed1b7a1b 	vldr	s14, [fp, #-108]	; 0xffffff94
    2d04:	eef87ac7 	vcvt.f32.s32	s15, s14
    2d08:	e51b2070 	ldr	r2, [fp, #-112]	; 0x70
    2d0c:	e3a01000 	mov	r1, #0
    2d10:	e51b3060 	ldr	r3, [fp, #-96]	; 0x60
    2d14:	ee170a10 	vmov	r0, s14
    2d18:	ed927a01 	vldr	s14, [r2, #4]
    2d1c:	eeb17a47 	vneg.f32	s14, s14
    2d20:	e2811001 	add	r1, r1, #1
    2d24:	e1510000 	cmp	r1, r0
    2d28:	ed827a01 	vstr	s14, [r2, #4]
    2d2c:	ed937a01 	vldr	s14, [r3, #4]
    2d30:	eeb17a47 	vneg.f32	s14, s14
    2d34:	edd36a00 	vldr	s13, [r3]
    2d38:	e2822008 	add	r2, r2, #8
    2d3c:	eec66aa7 	vdiv.f32	s13, s13, s15
    2d40:	ee877a27 	vdiv.f32	s14, s14, s15
    2d44:	edc36a00 	vstr	s13, [r3]
    2d48:	ed837a01 	vstr	s14, [r3, #4]
    2d4c:	e2833008 	add	r3, r3, #8
    2d50:	1afffff0 	bne	2d18 <complexIFFT+0x1b8>
    2d54:	e24bd020 	sub	sp, fp, #32
    2d58:	e8bd8ff0 	pop	{r4, r5, r6, r7, r8, r9, sl, fp, pc}
    2d5c:	e51b9070 	ldr	r9, [fp, #-112]	; 0x70
    2d60:	e51bc060 	ldr	ip, [fp, #-96]	; 0x60
    2d64:	e8990003 	ldm	r9, {r0, r1}
    2d68:	e88c0003 	stm	ip, {r0, r1}
    2d6c:	eaffffe3 	b	2d00 <complexIFFT+0x1a0>
    2d70:	e1a0c009 	mov	ip, r9
    2d74:	e5909010 	ldr	r9, [r0, #16]
    2d78:	e50bc05c 	str	ip, [fp, #-92]	; 0x5c
    2d7c:	e50b9064 	str	r9, [fp, #-100]	; 0x64
    2d80:	e5909014 	ldr	r9, [r0, #20]
    2d84:	e5900018 	ldr	r0, [r0, #24]
    2d88:	e50b9048 	str	r9, [fp, #-72]	; 0x48
    2d8c:	e50b004c 	str	r0, [fp, #-76]	; 0x4c
    2d90:	eaffff8f 	b	2bd4 <complexIFFT+0x74>

00002d94 <inicializarFFT>:
    2d94:	e3520000 	cmp	r2, #0
    2d98:	e92d4df0 	push	{r4, r5, r6, r7, r8, sl, fp, lr}
    2d9c:	ed2d8b08 	vpush	{d8-d11}
    2da0:	e1a04000 	mov	r4, r0
    2da4:	e5842000 	str	r2, [r4]
    2da8:	e28db03c 	add	fp, sp, #60	; 0x3c
    2dac:	e1a0a002 	mov	sl, r2
    2db0:	e5801008 	str	r1, [r0, #8]
    2db4:	0a000003 	beq	2dc8 <inicializarFFT+0x34>
    2db8:	e3520001 	cmp	r2, #1
    2dbc:	00818fa1 	addeq	r8, r1, r1, lsr #31
    2dc0:	01a080c8 	asreq	r8, r8, #1
    2dc4:	0a000000 	beq	2dcc <inicializarFFT+0x38>
    2dc8:	e1a08001 	mov	r8, r1
    2dcc:	e2811001 	add	r1, r1, #1
    2dd0:	e5848004 	str	r8, [r4, #4]
    2dd4:	e1a05108 	lsl	r5, r8, #2
    2dd8:	e1a00181 	lsl	r0, r1, #3
    2ddc:	ebfffc02 	bl	1dec <malloc@plt>
    2de0:	e2883001 	add	r3, r8, #1
    2de4:	e584000c 	str	r0, [r4, #12]
    2de8:	e1a00183 	lsl	r0, r3, #3
    2dec:	ebfffbfe 	bl	1dec <malloc@plt>
    2df0:	e5840010 	str	r0, [r4, #16]
    2df4:	e1a00005 	mov	r0, r5
    2df8:	ebfffbfb 	bl	1dec <malloc@plt>
    2dfc:	e1a07000 	mov	r7, r0
    2e00:	e1a00005 	mov	r0, r5
    2e04:	e5847014 	str	r7, [r4, #20]
    2e08:	ebfffbf7 	bl	1dec <malloc@plt>
    2e0c:	e3580000 	cmp	r8, #0
    2e10:	e5840018 	str	r0, [r4, #24]
    2e14:	da00001f 	ble	2e98 <inicializarFFT+0x104>
    2e18:	ee078a90 	vmov	s15, r8
    2e1c:	e3a05000 	mov	r5, #0
    2e20:	ed9f9b90 	vldr	d9, [pc, #576]	; 3068 <inicializarFFT+0x2d4>
    2e24:	ea000001 	b	2e30 <inicializarFFT+0x9c>
    2e28:	e5947014 	ldr	r7, [r4, #20]
    2e2c:	edd47a01 	vldr	s15, [r4, #4]
    2e30:	ee065a90 	vmov	s13, r5
    2e34:	eeb87ae6 	vcvt.f32.s32	s14, s13
    2e38:	e1a06105 	lsl	r6, r5, #2
    2e3c:	e2855001 	add	r5, r5, #1
    2e40:	e0877006 	add	r7, r7, r6
    2e44:	eef71ac7 	vcvt.f64.f32	d17, s14
    2e48:	ee611b89 	vmul.f64	d17, d17, d9
    2e4c:	eef87ae7 	vcvt.f32.s32	s15, s15
    2e50:	eef70ae7 	vcvt.f64.f32	d16, s15
    2e54:	ee818ba0 	vdiv.f64	d8, d17, d16
    2e58:	eeb78bc8 	vcvt.f32.f64	s16, d8
    2e5c:	eeb78ac8 	vcvt.f64.f32	d8, s16
    2e60:	ec510b18 	vmov	r0, r1, d8
    2e64:	ebfffbe3 	bl	1df8 <sin@plt>
    2e68:	ec410b30 	vmov	d16, r0, r1
    2e6c:	eef77be0 	vcvt.f32.f64	s15, d16
    2e70:	ec510b18 	vmov	r0, r1, d8
    2e74:	edc77a00 	vstr	s15, [r7]
    2e78:	ebfffbe1 	bl	1e04 <cos@plt>
    2e7c:	e5943018 	ldr	r3, [r4, #24]
    2e80:	e1550008 	cmp	r5, r8
    2e84:	e0836006 	add	r6, r3, r6
    2e88:	ec410b31 	vmov	d17, r0, r1
    2e8c:	eef77be1 	vcvt.f32.f64	s15, d17
    2e90:	edc67a00 	vstr	s15, [r6]
    2e94:	1affffe3 	bne	2e28 <inicializarFFT+0x94>
    2e98:	e35a0001 	cmp	sl, #1
    2e9c:	0a000002 	beq	2eac <inicializarFFT+0x118>
    2ea0:	e24bd03c 	sub	sp, fp, #60	; 0x3c
    2ea4:	ecbd8b08 	vpop	{d8-d11}
    2ea8:	e8bd8df0 	pop	{r4, r5, r6, r7, r8, sl, fp, pc}
    2eac:	e5945004 	ldr	r5, [r4, #4]
    2eb0:	e1a06185 	lsl	r6, r5, #3
    2eb4:	e1a00006 	mov	r0, r6
    2eb8:	ebfffbcb 	bl	1dec <malloc@plt>
    2ebc:	e1a07000 	mov	r7, r0
    2ec0:	e1a00006 	mov	r0, r6
    2ec4:	e584701c 	str	r7, [r4, #28]
    2ec8:	ebfffbc7 	bl	1dec <malloc@plt>
    2ecc:	e5840020 	str	r0, [r4, #32]
    2ed0:	e1a00006 	mov	r0, r6
    2ed4:	ebfffbc4 	bl	1dec <malloc@plt>
    2ed8:	e5840024 	str	r0, [r4, #36]	; 0x24
    2edc:	e1a00006 	mov	r0, r6
    2ee0:	ebfffbc1 	bl	1dec <malloc@plt>
    2ee4:	e3580000 	cmp	r8, #0
    2ee8:	e5840028 	str	r0, [r4, #40]	; 0x28
    2eec:	daffffeb 	ble	2ea0 <inicializarFFT+0x10c>
    2ef0:	eeb69b00 	vmov.f64	d9, #96	; 0x60
    2ef4:	e3a06000 	mov	r6, #0
    2ef8:	ed9fab5c 	vldr	d10, [pc, #368]	; 3070 <inicializarFFT+0x2dc>
    2efc:	eeb7bb00 	vmov.f64	d11, #112	; 0x70
    2f00:	ea000001 	b	2f0c <inicializarFFT+0x178>
    2f04:	e594701c 	ldr	r7, [r4, #28]
    2f08:	e5945004 	ldr	r5, [r4, #4]
    2f0c:	ee065a90 	vmov	s13, r5
    2f10:	eef87ae6 	vcvt.f32.s32	s15, s13
    2f14:	ee076a10 	vmov	s14, r6
    2f18:	e1a05186 	lsl	r5, r6, #3
    2f1c:	e0877005 	add	r7, r7, r5
    2f20:	e2866001 	add	r6, r6, #1
    2f24:	eef70ae7 	vcvt.f64.f32	d16, s15
    2f28:	eeca0b20 	vdiv.f64	d16, d10, d16
    2f2c:	eeb88ac7 	vcvt.f32.s32	s16, s14
    2f30:	eeb78ac8 	vcvt.f64.f32	d8, s16
    2f34:	ee601b88 	vmul.f64	d17, d16, d8
    2f38:	ec510b31 	vmov	r0, r1, d17
    2f3c:	ebfffbb0 	bl	1e04 <cos@plt>
    2f40:	ec410b17 	vmov	d7, r0, r1
    2f44:	ee670b49 	vnmul.f64	d16, d7, d9
    2f48:	eef77be0 	vcvt.f32.f64	s15, d16
    2f4c:	edc77a01 	vstr	s15, [r7, #4]
    2f50:	edd46a01 	vldr	s13, [r4, #4]
    2f54:	eef87ae6 	vcvt.f32.s32	s15, s13
    2f58:	eef70ae7 	vcvt.f64.f32	d16, s15
    2f5c:	eeca0b20 	vdiv.f64	d16, d10, d16
    2f60:	ee287b20 	vmul.f64	d7, d8, d16
    2f64:	ec510b17 	vmov	r0, r1, d7
    2f68:	ebfffba2 	bl	1df8 <sin@plt>
    2f6c:	e594301c 	ldr	r3, [r4, #28]
    2f70:	e0833005 	add	r3, r3, r5
    2f74:	ec410b31 	vmov	d17, r0, r1
    2f78:	ee7b0b61 	vsub.f64	d16, d11, d17
    2f7c:	ee600b89 	vmul.f64	d16, d16, d9
    2f80:	eef77be0 	vcvt.f32.f64	s15, d16
    2f84:	edc37a00 	vstr	s15, [r3]
    2f88:	edd46a01 	vldr	s13, [r4, #4]
    2f8c:	eef87ae6 	vcvt.f32.s32	s15, s13
    2f90:	eef70ae7 	vcvt.f64.f32	d16, s15
    2f94:	eeca0b20 	vdiv.f64	d16, d10, d16
    2f98:	ee681b20 	vmul.f64	d17, d8, d16
    2f9c:	ec510b31 	vmov	r0, r1, d17
    2fa0:	ebfffb97 	bl	1e04 <cos@plt>
    2fa4:	e5943020 	ldr	r3, [r4, #32]
    2fa8:	e0833005 	add	r3, r3, r5
    2fac:	ec410b17 	vmov	d7, r0, r1
    2fb0:	ee670b09 	vmul.f64	d16, d7, d9
    2fb4:	eef77be0 	vcvt.f32.f64	s15, d16
    2fb8:	edc37a01 	vstr	s15, [r3, #4]
    2fbc:	edd46a01 	vldr	s13, [r4, #4]
    2fc0:	eef87ae6 	vcvt.f32.s32	s15, s13
    2fc4:	eef70ae7 	vcvt.f64.f32	d16, s15
    2fc8:	eeca0b20 	vdiv.f64	d16, d10, d16
    2fcc:	ee287b20 	vmul.f64	d7, d8, d16
    2fd0:	ec510b17 	vmov	r0, r1, d7
    2fd4:	ebfffb87 	bl	1df8 <sin@plt>
    2fd8:	e5943020 	ldr	r3, [r4, #32]
    2fdc:	e1560008 	cmp	r6, r8
    2fe0:	e0833005 	add	r3, r3, r5
    2fe4:	ec410b31 	vmov	d17, r0, r1
    2fe8:	ee710b8b 	vadd.f64	d16, d17, d11
    2fec:	ee600b89 	vmul.f64	d16, d16, d9
    2ff0:	eef77be0 	vcvt.f32.f64	s15, d16
    2ff4:	edc37a00 	vstr	s15, [r3]
    2ff8:	e594201c 	ldr	r2, [r4, #28]
    2ffc:	e5943024 	ldr	r3, [r4, #36]	; 0x24
    3000:	e0822005 	add	r2, r2, r5
    3004:	edd27a01 	vldr	s15, [r2, #4]
    3008:	eef17a67 	vneg.f32	s15, s15
    300c:	e0833005 	add	r3, r3, r5
    3010:	edc37a01 	vstr	s15, [r3, #4]
    3014:	e594201c 	ldr	r2, [r4, #28]
    3018:	e5943024 	ldr	r3, [r4, #36]	; 0x24
    301c:	e0822005 	add	r2, r2, r5
    3020:	e0833005 	add	r3, r3, r5
    3024:	e5922000 	ldr	r2, [r2]
    3028:	e5832000 	str	r2, [r3]
    302c:	e5942020 	ldr	r2, [r4, #32]
    3030:	e5943028 	ldr	r3, [r4, #40]	; 0x28
    3034:	e0822005 	add	r2, r2, r5
    3038:	edd27a01 	vldr	s15, [r2, #4]
    303c:	eef17a67 	vneg.f32	s15, s15
    3040:	e0833005 	add	r3, r3, r5
    3044:	edc37a01 	vstr	s15, [r3, #4]
    3048:	e5943020 	ldr	r3, [r4, #32]
    304c:	e5942028 	ldr	r2, [r4, #40]	; 0x28
    3050:	e0833005 	add	r3, r3, r5
    3054:	e0825005 	add	r5, r2, r5
    3058:	e5933000 	ldr	r3, [r3]
    305c:	e5853000 	str	r3, [r5]
    3060:	1affffa7 	bne	2f04 <inicializarFFT+0x170>
    3064:	eaffff8d 	b	2ea0 <inicializarFFT+0x10c>
    3068:	54442d18 	strbpl	r2, [r4], #-3352	; 0xd18
    306c:	c01921fb 			; <UNDEFINED> instruction: 0xc01921fb
    3070:	54442d18 	strbpl	r2, [r4], #-3352	; 0xd18
    3074:	400921fb 	strdmi	r2, [r9], -fp

00003078 <destruirFFT>:
    3078:	e92d4818 	push	{r3, r4, fp, lr}
    307c:	e1a04000 	mov	r4, r0
    3080:	e28db00c 	add	fp, sp, #12
    3084:	e590000c 	ldr	r0, [r0, #12]
    3088:	ebfffb60 	bl	1e10 <free@plt>
    308c:	e5940010 	ldr	r0, [r4, #16]
    3090:	ebfffb5e 	bl	1e10 <free@plt>
    3094:	e5940014 	ldr	r0, [r4, #20]
    3098:	ebfffb5c 	bl	1e10 <free@plt>
    309c:	e5940018 	ldr	r0, [r4, #24]
    30a0:	ebfffb5a 	bl	1e10 <free@plt>
    30a4:	e5943000 	ldr	r3, [r4]
    30a8:	e3530001 	cmp	r3, #1
    30ac:	18bd8818 	popne	{r3, r4, fp, pc}
    30b0:	e594001c 	ldr	r0, [r4, #28]
    30b4:	ebfffb55 	bl	1e10 <free@plt>
    30b8:	e5940020 	ldr	r0, [r4, #32]
    30bc:	ebfffb53 	bl	1e10 <free@plt>
    30c0:	e5940024 	ldr	r0, [r4, #36]	; 0x24
    30c4:	ebfffb51 	bl	1e10 <free@plt>
    30c8:	e5940028 	ldr	r0, [r4, #40]	; 0x28
    30cc:	e8bd4818 	pop	{r3, r4, fp, lr}
    30d0:	eafffb4e 	b	1e10 <free@plt>
    30d4:	e320f000 	nop	{0}

000030d8 <inicializarDither>:
    30d8:	e92d49f0 	push	{r4, r5, r6, r7, r8, fp, lr}
    30dc:	e28db018 	add	fp, sp, #24
    30e0:	e59f515c 	ldr	r5, [pc, #348]	; 3244 <inicializarDither+0x16c>
    30e4:	e24dd00c 	sub	sp, sp, #12
    30e8:	e59f2158 	ldr	r2, [pc, #344]	; 3248 <inicializarDither+0x170>
    30ec:	e08f5005 	add	r5, pc, r5
    30f0:	e1a03080 	lsl	r3, r0, #1
    30f4:	e283300e 	add	r3, r3, #14
    30f8:	e1a04000 	mov	r4, r0
    30fc:	e7958002 	ldr	r8, [r5, r2]
    3100:	e3c33007 	bic	r3, r3, #7
    3104:	e04dd003 	sub	sp, sp, r3
    3108:	e3a0243f 	mov	r2, #1056964608	; 0x3f000000
    310c:	e1a00100 	lsl	r0, r0, #2
    3110:	e5983000 	ldr	r3, [r8]
    3114:	e1a0600d 	mov	r6, sp
    3118:	e50b3020 	str	r3, [fp, #-32]
    311c:	e59f3128 	ldr	r3, [pc, #296]	; 324c <inicializarDither+0x174>
    3120:	e7953003 	ldr	r3, [r5, r3]
    3124:	e5832000 	str	r2, [r3]
    3128:	e3a02447 	mov	r2, #1191182336	; 0x47000000
    312c:	e59f311c 	ldr	r3, [pc, #284]	; 3250 <inicializarDither+0x178>
    3130:	e7953003 	ldr	r3, [r5, r3]
    3134:	e5832000 	str	r2, [r3]
    3138:	e3a02cfe 	mov	r2, #65024	; 0xfe00
    313c:	e59f3110 	ldr	r3, [pc, #272]	; 3254 <inicializarDither+0x17c>
    3140:	e34426ff 	movt	r2, #18175	; 0x46ff
    3144:	e7953003 	ldr	r3, [r5, r3]
    3148:	e5832000 	str	r2, [r3]
    314c:	e3a02c01 	mov	r2, #256	; 0x100
    3150:	e59f3100 	ldr	r3, [pc, #256]	; 3258 <inicializarDither+0x180>
    3154:	e3432800 	movt	r2, #14336	; 0x3800
    3158:	e7953003 	ldr	r3, [r5, r3]
    315c:	e5832000 	str	r2, [r3]
    3160:	e3a02c01 	mov	r2, #256	; 0x100
    3164:	e59f30f0 	ldr	r3, [pc, #240]	; 325c <inicializarDither+0x184>
    3168:	e3422880 	movt	r2, #10368	; 0x2880
    316c:	e7953003 	ldr	r3, [r5, r3]
    3170:	e5832000 	str	r2, [r3]
    3174:	e3a02c01 	mov	r2, #256	; 0x100
    3178:	e59f30e0 	ldr	r3, [pc, #224]	; 3260 <inicializarDither+0x188>
    317c:	e3432780 	movt	r2, #14208	; 0x3780
    3180:	e7953003 	ldr	r3, [r5, r3]
    3184:	e5832000 	str	r2, [r3]
    3188:	ebfffb17 	bl	1dec <malloc@plt>
    318c:	e59f30d0 	ldr	r3, [pc, #208]	; 3264 <inicializarDither+0x18c>
    3190:	e59f10d0 	ldr	r1, [pc, #208]	; 3268 <inicializarDither+0x190>
    3194:	e7955003 	ldr	r5, [r5, r3]
    3198:	e08f1001 	add	r1, pc, r1
    319c:	e5850000 	str	r0, [r5]
    31a0:	e59f00c4 	ldr	r0, [pc, #196]	; 326c <inicializarDither+0x194>
    31a4:	e08f0000 	add	r0, pc, r0
    31a8:	ebfffb1b 	bl	1e1c <fopen@plt>
    31ac:	e3a01002 	mov	r1, #2
    31b0:	e1a02004 	mov	r2, r4
    31b4:	e1a07000 	mov	r7, r0
    31b8:	e1a0000d 	mov	r0, sp
    31bc:	e1a03007 	mov	r3, r7
    31c0:	ebfffb18 	bl	1e28 <fread@plt>
    31c4:	e1a00007 	mov	r0, r7
    31c8:	ebfffb19 	bl	1e34 <fclose@plt>
    31cc:	e3540001 	cmp	r4, #1
    31d0:	da00000c 	ble	3208 <inicializarDither+0x130>
    31d4:	e1a0200d 	mov	r2, sp
    31d8:	e3a03001 	mov	r3, #1
    31dc:	e1d2c0f2 	ldrsh	ip, [r2, #2]
    31e0:	e0d200f2 	ldrsh	r0, [r2], #2
    31e4:	e5951000 	ldr	r1, [r5]
    31e8:	e060000c 	rsb	r0, r0, ip
    31ec:	ee070a10 	vmov	s14, r0
    31f0:	eef87ac7 	vcvt.f32.s32	s15, s14
    31f4:	e0811103 	add	r1, r1, r3, lsl #2
    31f8:	e2833001 	add	r3, r3, #1
    31fc:	e1530004 	cmp	r3, r4
    3200:	edc17a00 	vstr	s15, [r1]
    3204:	1afffff4 	bne	31dc <inicializarDither+0x104>
    3208:	e0864084 	add	r4, r6, r4, lsl #1
    320c:	e1d600f0 	ldrsh	r0, [r6]
    3210:	e51b2020 	ldr	r2, [fp, #-32]
    3214:	e15410f2 	ldrsh	r1, [r4, #-2]
    3218:	e5953000 	ldr	r3, [r5]
    321c:	e0611000 	rsb	r1, r1, r0
    3220:	ee071a10 	vmov	s14, r1
    3224:	eef87ac7 	vcvt.f32.s32	s15, s14
    3228:	edc37a00 	vstr	s15, [r3]
    322c:	e5983000 	ldr	r3, [r8]
    3230:	e1520003 	cmp	r2, r3
    3234:	1a000001 	bne	3240 <inicializarDither+0x168>
    3238:	e24bd018 	sub	sp, fp, #24
    323c:	e8bd89f0 	pop	{r4, r5, r6, r7, r8, fp, pc}
    3240:	ebfffafe 	bl	1e40 <__stack_chk_fail@plt>
    3244:	00005e74 	andeq	r5, r0, r4, ror lr
    3248:	ffffffa8 			; <UNDEFINED> instruction: 0xffffffa8
    324c:	ffffffac 			; <UNDEFINED> instruction: 0xffffffac
    3250:	ffffffb0 			; <UNDEFINED> instruction: 0xffffffb0
    3254:	ffffffb4 			; <UNDEFINED> instruction: 0xffffffb4
    3258:	ffffffb8 			; <UNDEFINED> instruction: 0xffffffb8
    325c:	ffffffbc 			; <UNDEFINED> instruction: 0xffffffbc
    3260:	ffffffc0 			; <UNDEFINED> instruction: 0xffffffc0
    3264:	ffffffc4 			; <UNDEFINED> instruction: 0xffffffc4
    3268:	00004868 	andeq	r4, r0, r8, ror #16
    326c:	0000484c 	andeq	r4, r0, ip, asr #16

00003270 <destruidDither>:
    3270:	e59f3018 	ldr	r3, [pc, #24]	; 3290 <destruidDither+0x20>
    3274:	e52db004 	push	{fp}		; (str fp, [sp, #-4]!)
    3278:	e79f3003 	ldr	r3, [pc, r3]
    327c:	e28db000 	add	fp, sp, #0
    3280:	e5930000 	ldr	r0, [r3]
    3284:	e28bd000 	add	sp, fp, #0
    3288:	e8bd0800 	ldmfd	sp!, {fp}
    328c:	eafffadf 	b	1e10 <free@plt>
    3290:	00005cac 	andeq	r5, r0, ip, lsr #25

00003294 <multiplicarEspectros>:
    3294:	e3520000 	cmp	r2, #0
    3298:	e52db004 	push	{fp}		; (str fp, [sp, #-4]!)
    329c:	e28db000 	add	fp, sp, #0
    32a0:	da000011 	ble	32ec <multiplicarEspectros+0x58>
    32a4:	e3a03000 	mov	r3, #0
    32a8:	ed907a01 	vldr	s14, [r0, #4]
    32ac:	edd17a01 	vldr	s15, [r1, #4]
    32b0:	ee677a27 	vmul.f32	s15, s14, s15
    32b4:	edd06a00 	vldr	s13, [r0]
    32b8:	ed916a00 	vldr	s12, [r1]
    32bc:	e2833001 	add	r3, r3, #1
    32c0:	e1530002 	cmp	r3, r2
    32c4:	ee567a86 	vnmls.f32	s15, s13, s12
    32c8:	edc07a00 	vstr	s15, [r0]
    32cc:	edd17a01 	vldr	s15, [r1, #4]
    32d0:	ee667aa7 	vmul.f32	s15, s13, s15
    32d4:	edd16a00 	vldr	s13, [r1]
    32d8:	e2811008 	add	r1, r1, #8
    32dc:	ee477a26 	vmla.f32	s15, s14, s13
    32e0:	edc07a01 	vstr	s15, [r0, #4]
    32e4:	e2800008 	add	r0, r0, #8
    32e8:	1affffee 	bne	32a8 <multiplicarEspectros+0x14>
    32ec:	e28bd000 	add	sp, fp, #0
    32f0:	e8bd0800 	ldmfd	sp!, {fp}
    32f4:	e12fff1e 	bx	lr

000032f8 <sumarSenales>:
    32f8:	e3520000 	cmp	r2, #0
    32fc:	e52db004 	push	{fp}		; (str fp, [sp, #-4]!)
    3300:	e28db000 	add	fp, sp, #0
    3304:	da000007 	ble	3328 <sumarSenales+0x30>
    3308:	e3a03000 	mov	r3, #0
    330c:	ed907a00 	vldr	s14, [r0]
    3310:	ecf17a01 	vldmia	r1!, {s15}
    3314:	ee777a27 	vadd.f32	s15, s14, s15
    3318:	e2833001 	add	r3, r3, #1
    331c:	e1530002 	cmp	r3, r2
    3320:	ece07a01 	vstmia	r0!, {s15}
    3324:	1afffff8 	bne	330c <sumarSenales+0x14>
    3328:	e28bd000 	add	sp, fp, #0
    332c:	e8bd0800 	ldmfd	sp!, {fp}
    3330:	e12fff1e 	bx	lr

00003334 <getFlotasInt16>:
    3334:	e3520000 	cmp	r2, #0
    3338:	e92d0810 	push	{r4, fp}
    333c:	e28db004 	add	fp, sp, #4
    3340:	da00000c 	ble	3378 <getFlotasInt16+0x44>
    3344:	e59f4038 	ldr	r4, [pc, #56]	; 3384 <getFlotasInt16+0x50>
    3348:	e1a02082 	lsl	r2, r2, #1
    334c:	e3a03000 	mov	r3, #0
    3350:	e79f4004 	ldr	r4, [pc, r4]
    3354:	e190c0f3 	ldrsh	ip, [r0, r3]
    3358:	ee06ca90 	vmov	s13, ip
    335c:	eeb87ae6 	vcvt.f32.s32	s14, s13
    3360:	edd47a00 	vldr	s15, [r4]
    3364:	e2833002 	add	r3, r3, #2
    3368:	e1530002 	cmp	r3, r2
    336c:	eec77a27 	vdiv.f32	s15, s14, s15
    3370:	ece17a01 	vstmia	r1!, {s15}
    3374:	1afffff6 	bne	3354 <getFlotasInt16+0x20>
    3378:	e24bd004 	sub	sp, fp, #4
    337c:	e8bd0810 	pop	{r4, fp}
    3380:	e12fff1e 	bx	lr
    3384:	00005bc0 	andeq	r5, r0, r0, asr #23

00003388 <getIntsInt16>:
    3388:	e3520000 	cmp	r2, #0
    338c:	e92d0810 	push	{r4, fp}
    3390:	e28db004 	add	fp, sp, #4
    3394:	da00000c 	ble	33cc <getIntsInt16+0x44>
    3398:	e59f4038 	ldr	r4, [pc, #56]	; 33d8 <getIntsInt16+0x50>
    339c:	e1a02082 	lsl	r2, r2, #1
    33a0:	e3a03000 	mov	r3, #0
    33a4:	e79f4004 	ldr	r4, [pc, r4]
    33a8:	ecb17a01 	vldmia	r1!, {s14}
    33ac:	edd47a00 	vldr	s15, [r4]
    33b0:	ee677a27 	vmul.f32	s15, s14, s15
    33b4:	eefd7ae7 	vcvt.s32.f32	s15, s15
    33b8:	ee17ca90 	vmov	ip, s15
    33bc:	e180c0b3 	strh	ip, [r0, r3]
    33c0:	e2833002 	add	r3, r3, #2
    33c4:	e1530002 	cmp	r3, r2
    33c8:	1afffff6 	bne	33a8 <getIntsInt16+0x20>
    33cc:	e24bd004 	sub	sp, fp, #4
    33d0:	e8bd0810 	pop	{r4, fp}
    33d4:	e12fff1e 	bx	lr
    33d8:	00005b6c 	andeq	r5, r0, ip, ror #22

000033dc <getIntsInt16_dither>:
    33dc:	e92d0ff0 	push	{r4, r5, r6, r7, r8, r9, sl, fp}
    33e0:	e3520000 	cmp	r2, #0
    33e4:	e28db01c 	add	fp, sp, #28
    33e8:	e59f5134 	ldr	r5, [pc, #308]	; 3524 <getIntsInt16_dither+0x148>
    33ec:	e24dd018 	sub	sp, sp, #24
    33f0:	e08f5005 	add	r5, pc, r5
    33f4:	e50b0020 	str	r0, [fp, #-32]
    33f8:	da000046 	ble	3518 <getIntsInt16_dither+0x13c>
    33fc:	e1a02082 	lsl	r2, r2, #1
    3400:	e50b2024 	str	r2, [fp, #-36]	; 0x24
    3404:	e59f211c 	ldr	r2, [pc, #284]	; 3528 <getIntsInt16_dither+0x14c>
    3408:	e3a03000 	mov	r3, #0
    340c:	e7954002 	ldr	r4, [r5, r2]
    3410:	e59f2114 	ldr	r2, [pc, #276]	; 352c <getIntsInt16_dither+0x150>
    3414:	e795c002 	ldr	ip, [r5, r2]
    3418:	e59f2110 	ldr	r2, [pc, #272]	; 3530 <getIntsInt16_dither+0x154>
    341c:	e795a002 	ldr	sl, [r5, r2]
    3420:	e59f210c 	ldr	r2, [pc, #268]	; 3534 <getIntsInt16_dither+0x158>
    3424:	e7952002 	ldr	r2, [r5, r2]
    3428:	e50b2028 	str	r2, [fp, #-40]	; 0x28
    342c:	e59f2104 	ldr	r2, [pc, #260]	; 3538 <getIntsInt16_dither+0x15c>
    3430:	e7958002 	ldr	r8, [r5, r2]
    3434:	e59f2100 	ldr	r2, [pc, #256]	; 353c <getIntsInt16_dither+0x160>
    3438:	e7957002 	ldr	r7, [r5, r2]
    343c:	e59f20fc 	ldr	r2, [pc, #252]	; 3540 <getIntsInt16_dither+0x164>
    3440:	e7956002 	ldr	r6, [r5, r2]
    3444:	e59f20f8 	ldr	r2, [pc, #248]	; 3544 <getIntsInt16_dither+0x168>
    3448:	e7952002 	ldr	r2, [r5, r2]
    344c:	e50b202c 	str	r2, [fp, #-44]	; 0x2c
    3450:	e59f20f0 	ldr	r2, [pc, #240]	; 3548 <getIntsInt16_dither+0x16c>
    3454:	e7959002 	ldr	r9, [r5, r2]
    3458:	e59f20ec 	ldr	r2, [pc, #236]	; 354c <getIntsInt16_dither+0x170>
    345c:	e7950002 	ldr	r0, [r5, r2]
    3460:	e59f20e8 	ldr	r2, [pc, #232]	; 3550 <getIntsInt16_dither+0x174>
    3464:	e7952002 	ldr	r2, [r5, r2]
    3468:	e1a05001 	mov	r5, r1
    346c:	e50b2030 	str	r2, [fp, #-48]	; 0x30
    3470:	edd46a00 	vldr	s13, [r4]
    3474:	ee364aa6 	vadd.f32	s8, s13, s13
    3478:	eddc4a00 	vldr	s9, [ip]
    347c:	ecf57a01 	vldmia	r5!, {s15}
    3480:	ed9a5a00 	vldr	s10, [sl]
    3484:	ed987a00 	vldr	s14, [r8]
    3488:	e5972000 	ldr	r2, [r7]
    348c:	edd65a00 	vldr	s11, [r6]
    3490:	e51b1028 	ldr	r1, [fp, #-40]	; 0x28
    3494:	ed996a00 	vldr	s12, [r9]
    3498:	e0822083 	add	r2, r2, r3, lsl #1
    349c:	ee744a64 	vsub.f32	s9, s8, s9
    34a0:	ee447a85 	vmla.f32	s15, s9, s10
    34a4:	ee377a87 	vadd.f32	s14, s15, s14
    34a8:	edc17a00 	vstr	s15, [r1]
    34ac:	ed925a00 	vldr	s10, [r2]
    34b0:	e51b202c 	ldr	r2, [fp, #-44]	; 0x2c
    34b4:	e51b1030 	ldr	r1, [fp, #-48]	; 0x30
    34b8:	edcc6a00 	vstr	s13, [ip]
    34bc:	ee057a25 	vmla.f32	s14, s10, s11
    34c0:	ee276a06 	vmul.f32	s12, s14, s12
    34c4:	ed827a00 	vstr	s14, [r2]
    34c8:	eebd6ac6 	vcvt.s32.f32	s12, s12
    34cc:	eeb57ac0 	vcmpe.f32	s14, #0.0
    34d0:	ee162a10 	vmov	r2, s12
    34d4:	e1c020b0 	strh	r2, [r0]
    34d8:	e2422001 	sub	r2, r2, #1
    34dc:	ed917a00 	vldr	s14, [r1]
    34e0:	eef1fa10 	vmrs	APSR_nzcv, fpscr
    34e4:	41c020b0 	strhmi	r2, [r0]
    34e8:	e1d020b0 	ldrh	r2, [r0]
    34ec:	e6bf1072 	sxth	r1, r2
    34f0:	ee061a10 	vmov	s12, r1
    34f4:	eef86ac6 	vcvt.f32.s32	s13, s12
    34f8:	e51b1020 	ldr	r1, [fp, #-32]
    34fc:	ee467ac7 	vmls.f32	s15, s13, s14
    3500:	edc47a00 	vstr	s15, [r4]
    3504:	e18120b3 	strh	r2, [r1, r3]
    3508:	e51b2024 	ldr	r2, [fp, #-36]	; 0x24
    350c:	e2833002 	add	r3, r3, #2
    3510:	e1530002 	cmp	r3, r2
    3514:	1affffd5 	bne	3470 <getIntsInt16_dither+0x94>
    3518:	e24bd01c 	sub	sp, fp, #28
    351c:	e8bd0ff0 	pop	{r4, r5, r6, r7, r8, r9, sl, fp}
    3520:	e12fff1e 	bx	lr
    3524:	00005b70 	andeq	r5, r0, r0, ror fp
    3528:	ffffffc8 			; <UNDEFINED> instruction: 0xffffffc8
    352c:	ffffffcc 			; <UNDEFINED> instruction: 0xffffffcc
    3530:	ffffffac 			; <UNDEFINED> instruction: 0xffffffac
    3534:	ffffffd0 			; <UNDEFINED> instruction: 0xffffffd0
    3538:	ffffffc0 			; <UNDEFINED> instruction: 0xffffffc0
    353c:	ffffffc4 			; <UNDEFINED> instruction: 0xffffffc4
    3540:	ffffffbc 			; <UNDEFINED> instruction: 0xffffffbc
    3544:	ffffffd4 			; <UNDEFINED> instruction: 0xffffffd4
    3548:	ffffffb4 			; <UNDEFINED> instruction: 0xffffffb4
    354c:	ffffffd8 			; <UNDEFINED> instruction: 0xffffffd8
    3550:	ffffffb8 			; <UNDEFINED> instruction: 0xffffffb8

00003554 <multiplicarVentanasMono>:
    3554:	e3520000 	cmp	r2, #0
    3558:	e52db004 	push	{fp}		; (str fp, [sp, #-4]!)
    355c:	e28db000 	add	fp, sp, #0
    3560:	da000007 	ble	3584 <multiplicarVentanasMono+0x30>
    3564:	e3a03000 	mov	r3, #0
    3568:	ed907a00 	vldr	s14, [r0]
    356c:	ecf17a01 	vldmia	r1!, {s15}
    3570:	ee677a27 	vmul.f32	s15, s14, s15
    3574:	e2833001 	add	r3, r3, #1
    3578:	e1530002 	cmp	r3, r2
    357c:	ece07a01 	vstmia	r0!, {s15}
    3580:	1afffff8 	bne	3568 <multiplicarVentanasMono+0x14>
    3584:	e28bd000 	add	sp, fp, #0
    3588:	e8bd0800 	ldmfd	sp!, {fp}
    358c:	e12fff1e 	bx	lr

00003590 <multiplicarVentanasStereo>:
    3590:	e3520000 	cmp	r2, #0
    3594:	e52db004 	push	{fp}		; (str fp, [sp, #-4]!)
    3598:	e28db000 	add	fp, sp, #0
    359c:	da00000d 	ble	35d8 <multiplicarVentanasStereo+0x48>
    35a0:	e2800004 	add	r0, r0, #4
    35a4:	e3a03000 	mov	r3, #0
    35a8:	edd17a00 	vldr	s15, [r1]
    35ac:	ed107a01 	vldr	s14, [r0, #-4]
    35b0:	ee677a27 	vmul.f32	s15, s14, s15
    35b4:	ed907a00 	vldr	s14, [r0]
    35b8:	e2833001 	add	r3, r3, #1
    35bc:	e1530002 	cmp	r3, r2
    35c0:	ed407a01 	vstr	s15, [r0, #-4]
    35c4:	ecf17a01 	vldmia	r1!, {s15}
    35c8:	ee677a27 	vmul.f32	s15, s14, s15
    35cc:	ee17ca90 	vmov	ip, s15
    35d0:	e480c008 	str	ip, [r0], #8
    35d4:	1afffff3 	bne	35a8 <multiplicarVentanasStereo+0x18>
    35d8:	e28bd000 	add	sp, fp, #0
    35dc:	e8bd0800 	ldmfd	sp!, {fp}
    35e0:	e12fff1e 	bx	lr

000035e4 <memCopia>:
    35e4:	e52db004 	push	{fp}		; (str fp, [sp, #-4]!)
    35e8:	e28db000 	add	fp, sp, #0
    35ec:	e28bd000 	add	sp, fp, #0
    35f0:	e8bd0800 	ldmfd	sp!, {fp}
    35f4:	eafffa14 	b	1e4c <memcpy@plt>

000035f8 <memSeteado>:
    35f8:	e52db004 	push	{fp}		; (str fp, [sp, #-4]!)
    35fc:	e28db000 	add	fp, sp, #0
    3600:	e28bd000 	add	sp, fp, #0
    3604:	e8bd0800 	ldmfd	sp!, {fp}
    3608:	eafffa12 	b	1e58 <memset@plt>

0000360c <crearBartlett>:
    360c:	e081cfa1 	add	ip, r1, r1, lsr #31
    3610:	e52db004 	push	{fp}		; (str fp, [sp, #-4]!)
    3614:	e1a0c0cc 	asr	ip, ip, #1
    3618:	e35c0000 	cmp	ip, #0
    361c:	e28db000 	add	fp, sp, #0
    3620:	da000012 	ble	3670 <crearBartlett+0x64>
    3624:	ee071a10 	vmov	s14, r1
    3628:	eef87ac7 	vcvt.f32.s32	s15, s14
    362c:	e080210c 	add	r2, r0, ip, lsl #2
    3630:	e3a03000 	mov	r3, #0
    3634:	eef72b00 	vmov.f64	d18, #112	; 0x70
    3638:	eef71ae7 	vcvt.f64.f32	d17, s15
    363c:	ee073a10 	vmov	s14, r3
    3640:	eef87ac7 	vcvt.f32.s32	s15, s14
    3644:	e2833001 	add	r3, r3, #1
    3648:	e153000c 	cmp	r3, ip
    364c:	eef70ae7 	vcvt.f64.f32	d16, s15
    3650:	ee700ba0 	vadd.f64	d16, d16, d16
    3654:	eec00ba1 	vdiv.f64	d16, d16, d17
    3658:	ee723be0 	vsub.f64	d19, d18, d16
    365c:	eeb77be0 	vcvt.f32.f64	s14, d16
    3660:	eef77be3 	vcvt.f32.f64	s15, d19
    3664:	eca07a01 	vstmia	r0!, {s14}
    3668:	ece27a01 	vstmia	r2!, {s15}
    366c:	1afffff2 	bne	363c <crearBartlett+0x30>
    3670:	e28bd000 	add	sp, fp, #0
    3674:	e8bd0800 	ldmfd	sp!, {fp}
    3678:	e12fff1e 	bx	lr

0000367c <crearHamming>:
    367c:	e92d4878 	push	{r3, r4, r5, r6, fp, lr}
    3680:	ed2d8b08 	vpush	{d8-d11}
    3684:	e2514000 	subs	r4, r1, #0
    3688:	ee082a10 	vmov	s16, r2
    368c:	e28db034 	add	fp, sp, #52	; 0x34
    3690:	ee0a3a10 	vmov	s20, r3
    3694:	da000017 	ble	36f8 <crearHamming+0x7c>
    3698:	e2443001 	sub	r3, r4, #1
    369c:	ee073a10 	vmov	s14, r3
    36a0:	eeb8bac7 	vcvt.f32.s32	s22, s14
    36a4:	ed9f9b17 	vldr	d9, [pc, #92]	; 3708 <crearHamming+0x8c>
    36a8:	e1a06000 	mov	r6, r0
    36ac:	e3a05000 	mov	r5, #0
    36b0:	eeb78ac8 	vcvt.f64.f32	d8, s16
    36b4:	eeb7aaca 	vcvt.f64.f32	d10, s20
    36b8:	eeb7bacb 	vcvt.f64.f32	d11, s22
    36bc:	ee075a10 	vmov	s14, r5
    36c0:	eef87ac7 	vcvt.f32.s32	s15, s14
    36c4:	e2855001 	add	r5, r5, #1
    36c8:	eef70ae7 	vcvt.f64.f32	d16, s15
    36cc:	ee600b89 	vmul.f64	d16, d16, d9
    36d0:	eec01b8b 	vdiv.f64	d17, d16, d11
    36d4:	ec510b31 	vmov	r0, r1, d17
    36d8:	ebfff9c9 	bl	1e04 <cos@plt>
    36dc:	eef00b48 	vmov.f64	d16, d8
    36e0:	e1550004 	cmp	r5, r4
    36e4:	ec410b17 	vmov	d7, r0, r1
    36e8:	ee470b4a 	vmls.f64	d16, d7, d10
    36ec:	eef77be0 	vcvt.f32.f64	s15, d16
    36f0:	ece67a01 	vstmia	r6!, {s15}
    36f4:	1afffff0 	bne	36bc <crearHamming+0x40>
    36f8:	e24bd034 	sub	sp, fp, #52	; 0x34
    36fc:	ecbd8b08 	vpop	{d8-d11}
    3700:	e8bd8878 	pop	{r3, r4, r5, r6, fp, pc}
    3704:	e320f000 	nop	{0}
    3708:	54442d18 	strbpl	r2, [r4], #-3352	; 0xd18
    370c:	401921fb 			; <UNDEFINED> instruction: 0x401921fb

00003710 <crearBlackman>:
    3710:	e92d4878 	push	{r3, r4, r5, r6, fp, lr}
    3714:	ed2d8b10 	vpush	{d8-d15}
    3718:	e2514000 	subs	r4, r1, #0
    371c:	ee0b2a10 	vmov	s22, r2
    3720:	e28db054 	add	fp, sp, #84	; 0x54
    3724:	ee0e3a10 	vmov	s28, r3
    3728:	da000020 	ble	37b0 <crearBlackman+0xa0>
    372c:	e2443001 	sub	r3, r4, #1
    3730:	ee073a90 	vmov	s15, r3
    3734:	eeb8aae7 	vcvt.f32.s32	s20, s15
    3738:	ed9bfa01 	vldr	s30, [fp, #4]
    373c:	ed9fcb1f 	vldr	d12, [pc, #124]	; 37c0 <crearBlackman+0xb0>
    3740:	e1a06000 	mov	r6, r0
    3744:	ed9fdb1f 	vldr	d13, [pc, #124]	; 37c8 <crearBlackman+0xb8>
    3748:	e3a05000 	mov	r5, #0
    374c:	eeb7bacb 	vcvt.f64.f32	d11, s22
    3750:	eeb7eace 	vcvt.f64.f32	d14, s28
    3754:	eeb7aaca 	vcvt.f64.f32	d10, s20
    3758:	eeb7facf 	vcvt.f64.f32	d15, s30
    375c:	ee075a90 	vmov	s15, r5
    3760:	eeb88ae7 	vcvt.f32.s32	s16, s15
    3764:	e2855001 	add	r5, r5, #1
    3768:	eeb78ac8 	vcvt.f64.f32	d8, s16
    376c:	ee680b0c 	vmul.f64	d16, d8, d12
    3770:	eec01b8a 	vdiv.f64	d17, d16, d10
    3774:	ec510b31 	vmov	r0, r1, d17
    3778:	ebfff9a1 	bl	1e04 <cos@plt>
    377c:	ee680b0d 	vmul.f64	d16, d8, d13
    3780:	eec01b8a 	vdiv.f64	d17, d16, d10
    3784:	ec410b19 	vmov	d9, r0, r1
    3788:	ec510b31 	vmov	r0, r1, d17
    378c:	ebfff99c 	bl	1e04 <cos@plt>
    3790:	eef00b4b 	vmov.f64	d16, d11
    3794:	e1550004 	cmp	r5, r4
    3798:	ee490b4e 	vmls.f64	d16, d9, d14
    379c:	ec410b31 	vmov	d17, r0, r1
    37a0:	ee410b8f 	vmla.f64	d16, d17, d15
    37a4:	eef77be0 	vcvt.f32.f64	s15, d16
    37a8:	ece67a01 	vstmia	r6!, {s15}
    37ac:	1affffea 	bne	375c <crearBlackman+0x4c>
    37b0:	e24bd054 	sub	sp, fp, #84	; 0x54
    37b4:	ecbd8b10 	vpop	{d8-d15}
    37b8:	e8bd8878 	pop	{r3, r4, r5, r6, fp, pc}
    37bc:	e320f000 	nop	{0}
    37c0:	54442d18 	strbpl	r2, [r4], #-3352	; 0xd18
    37c4:	401921fb 			; <UNDEFINED> instruction: 0x401921fb
    37c8:	54442d18 	strbpl	r2, [r4], #-3352	; 0xd18
    37cc:	402921fb 	strdmi	r2, [r9], -fp	; <UNPREDICTABLE>

000037d0 <crearSincFunction>:
    37d0:	e92d49f8 	push	{r3, r4, r5, r6, r7, r8, fp, lr}
    37d4:	ed2d8b0a 	vpush	{d8-d12}
    37d8:	e1a06002 	mov	r6, r2
    37dc:	ee091a10 	vmov	s18, r1
    37e0:	e2422001 	sub	r2, r2, #1
    37e4:	e3560000 	cmp	r6, #0
    37e8:	e28db044 	add	fp, sp, #68	; 0x44
    37ec:	ee092a90 	vmov	s19, r2
    37f0:	e0827fa2 	add	r7, r2, r2, lsr #31
    37f4:	e1a070c7 	asr	r7, r7, #1
    37f8:	da00001d 	ble	3874 <crearSincFunction+0xa4>
    37fc:	eeb6ab00 	vmov.f64	d10, #96	; 0x60
    3800:	ed9fbb1e 	vldr	d11, [pc, #120]	; 3880 <crearSincFunction+0xb0>
    3804:	ed9fcb1f 	vldr	d12, [pc, #124]	; 3888 <crearSincFunction+0xb8>
    3808:	e0808107 	add	r8, r0, r7, lsl #2
    380c:	e1a05000 	mov	r5, r0
    3810:	e3a04000 	mov	r4, #0
    3814:	e1540007 	cmp	r4, r7
    3818:	0e797a09 	vaddeq.f32	s15, s18, s18
    381c:	0dc87a00 	vstreq	s15, [r8]
    3820:	0a00000f 	beq	3864 <crearSincFunction+0x94>
    3824:	ee074a90 	vmov	s15, r4
    3828:	eef80be9 	vcvt.f64.s32	d16, s19
    382c:	eeb88be7 	vcvt.f64.s32	d8, s15
    3830:	ee008bca 	vmls.f64	d8, d16, d10
    3834:	eef70ac9 	vcvt.f64.f32	d16, s18
    3838:	ee600b8b 	vmul.f64	d16, d16, d11
    383c:	eeb78bc8 	vcvt.f32.f64	s16, d8
    3840:	eeb78ac8 	vcvt.f64.f32	d8, s16
    3844:	ee601b88 	vmul.f64	d17, d16, d8
    3848:	ec510b31 	vmov	r0, r1, d17
    384c:	ebfff969 	bl	1df8 <sin@plt>
    3850:	ee680b0c 	vmul.f64	d16, d8, d12
    3854:	ec410b31 	vmov	d17, r0, r1
    3858:	eec10ba0 	vdiv.f64	d16, d17, d16
    385c:	eef77be0 	vcvt.f32.f64	s15, d16
    3860:	edc57a00 	vstr	s15, [r5]
    3864:	e2844001 	add	r4, r4, #1
    3868:	e2855004 	add	r5, r5, #4
    386c:	e1540006 	cmp	r4, r6
    3870:	1affffe7 	bne	3814 <crearSincFunction+0x44>
    3874:	e24bd044 	sub	sp, fp, #68	; 0x44
    3878:	ecbd8b0a 	vpop	{d8-d12}
    387c:	e8bd89f8 	pop	{r3, r4, r5, r6, r7, r8, fp, pc}
    3880:	54442d18 	strbpl	r2, [r4], #-3352	; 0xd18
    3884:	401921fb 			; <UNDEFINED> instruction: 0x401921fb
    3888:	54442d18 	strbpl	r2, [r4], #-3352	; 0xd18
    388c:	400921fb 	strdmi	r2, [r9], -fp

00003890 <crearLPF>:
    3890:	e92d4ff0 	push	{r4, r5, r6, r7, r8, r9, sl, fp, lr}
    3894:	ed2d8b02 	vpush	{d8}
    3898:	e28db028 	add	fp, sp, #40	; 0x28
    389c:	ee070a10 	vmov	s14, r0
    38a0:	e24dd01c 	sub	sp, sp, #28
    38a4:	e1a04002 	mov	r4, r2
    38a8:	e1a02103 	lsl	r2, r3, #2
    38ac:	eddb7a01 	vldr	s15, [fp, #4]
    38b0:	ee878a27 	vdiv.f32	s16, s14, s15
    38b4:	e59f50e4 	ldr	r5, [pc, #228]	; 39a0 <crearLPF+0x110>
    38b8:	e282200e 	add	r2, r2, #14
    38bc:	e1a08104 	lsl	r8, r4, #2
    38c0:	e3c22007 	bic	r2, r2, #7
    38c4:	e1a07003 	mov	r7, r3
    38c8:	e288300e 	add	r3, r8, #14
    38cc:	e04dd002 	sub	sp, sp, r2
    38d0:	e79f5005 	ldr	r5, [pc, r5]
    38d4:	e3c33007 	bic	r3, r3, #7
    38d8:	e28d6008 	add	r6, sp, #8
    38dc:	e04dd003 	sub	sp, sp, r3
    38e0:	e595c000 	ldr	ip, [r5]
    38e4:	e28da008 	add	sl, sp, #8
    38e8:	e50b1038 	str	r1, [fp, #-56]	; 0x38
    38ec:	e3033d1d 	movw	r3, #15645	; 0x3d1d
    38f0:	e1a01004 	mov	r1, r4
    38f4:	e3433efe 	movt	r3, #16126	; 0x3efe
    38f8:	e1a0000a 	mov	r0, sl
    38fc:	e3062a01 	movw	r2, #27137	; 0x6a01
    3900:	e3432eda 	movt	r2, #16090	; 0x3eda
    3904:	e50bc030 	str	ip, [fp, #-48]	; 0x30
    3908:	e306c302 	movw	ip, #25346	; 0x6302
    390c:	e59b9008 	ldr	r9, [fp, #8]
    3910:	e343cd9d 	movt	ip, #15773	; 0x3d9d
    3914:	e58dc000 	str	ip, [sp]
    3918:	ebffff7c 	bl	3710 <crearBlackman>
    391c:	e1a00006 	mov	r0, r6
    3920:	e1a02004 	mov	r2, r4
    3924:	ee181a10 	vmov	r1, s16
    3928:	ebffffa8 	bl	37d0 <crearSincFunction>
    392c:	e3540000 	cmp	r4, #0
    3930:	da000008 	ble	3958 <crearLPF+0xc8>
    3934:	e1a02006 	mov	r2, r6
    3938:	e3a03000 	mov	r3, #0
    393c:	ed927a00 	vldr	s14, [r2]
    3940:	ecfa7a01 	vldmia	sl!, {s15}
    3944:	ee677a27 	vmul.f32	s15, s14, s15
    3948:	e2833001 	add	r3, r3, #1
    394c:	e1530004 	cmp	r3, r4
    3950:	ece27a01 	vstmia	r2!, {s15}
    3954:	1afffff8 	bne	393c <crearLPF+0xac>
    3958:	e0644007 	rsb	r4, r4, r7
    395c:	e3a01000 	mov	r1, #0
    3960:	e0860008 	add	r0, r6, r8
    3964:	e1a02104 	lsl	r2, r4, #2
    3968:	ebfff93a 	bl	1e58 <memset@plt>
    396c:	e51b2038 	ldr	r2, [fp, #-56]	; 0x38
    3970:	e3a03000 	mov	r3, #0
    3974:	e1a00009 	mov	r0, r9
    3978:	e1a01006 	mov	r1, r6
    397c:	ebfffa39 	bl	2268 <realFFT>
    3980:	e51b2030 	ldr	r2, [fp, #-48]	; 0x30
    3984:	e5953000 	ldr	r3, [r5]
    3988:	e1520003 	cmp	r2, r3
    398c:	1a000002 	bne	399c <crearLPF+0x10c>
    3990:	e24bd028 	sub	sp, fp, #40	; 0x28
    3994:	ecbd8b02 	vpop	{d8}
    3998:	e8bd8ff0 	pop	{r4, r5, r6, r7, r8, r9, sl, fp, pc}
    399c:	ebfff927 	bl	1e40 <__stack_chk_fail@plt>
    39a0:	00005638 	andeq	r5, r0, r8, lsr r6

000039a4 <crearHPF>:
    39a4:	e92d4ff0 	push	{r4, r5, r6, r7, r8, r9, sl, fp, lr}
    39a8:	ed2d8b02 	vpush	{d8}
    39ac:	e28db028 	add	fp, sp, #40	; 0x28
    39b0:	ee070a10 	vmov	s14, r0
    39b4:	e24dd01c 	sub	sp, sp, #28
    39b8:	e1a04002 	mov	r4, r2
    39bc:	e1a02103 	lsl	r2, r3, #2
    39c0:	eddb7a01 	vldr	s15, [fp, #4]
    39c4:	ee878a27 	vdiv.f32	s16, s14, s15
    39c8:	e59f613c 	ldr	r6, [pc, #316]	; 3b0c <crearHPF+0x168>
    39cc:	e282200e 	add	r2, r2, #14
    39d0:	e1a0a104 	lsl	sl, r4, #2
    39d4:	e3c22007 	bic	r2, r2, #7
    39d8:	e1a08003 	mov	r8, r3
    39dc:	e28a300e 	add	r3, sl, #14
    39e0:	e04dd002 	sub	sp, sp, r2
    39e4:	e79f6006 	ldr	r6, [pc, r6]
    39e8:	e3c33007 	bic	r3, r3, #7
    39ec:	e28d7008 	add	r7, sp, #8
    39f0:	e04dd003 	sub	sp, sp, r3
    39f4:	e596c000 	ldr	ip, [r6]
    39f8:	e59be008 	ldr	lr, [fp, #8]
    39fc:	e28d9008 	add	r9, sp, #8
    3a00:	e50b1038 	str	r1, [fp, #-56]	; 0x38
    3a04:	e2445001 	sub	r5, r4, #1
    3a08:	e1a00009 	mov	r0, r9
    3a0c:	e1a01004 	mov	r1, r4
    3a10:	e3033d1d 	movw	r3, #15645	; 0x3d1d
    3a14:	e3062a01 	movw	r2, #27137	; 0x6a01
    3a18:	e3433efe 	movt	r3, #16126	; 0x3efe
    3a1c:	e3432eda 	movt	r2, #16090	; 0x3eda
    3a20:	e50be03c 	str	lr, [fp, #-60]	; 0x3c
    3a24:	e0855fa5 	add	r5, r5, r5, lsr #31
    3a28:	e50bc030 	str	ip, [fp, #-48]	; 0x30
    3a2c:	e306c302 	movw	ip, #25346	; 0x6302
    3a30:	e343cd9d 	movt	ip, #15773	; 0x3d9d
    3a34:	e58dc000 	str	ip, [sp]
    3a38:	ebffff34 	bl	3710 <crearBlackman>
    3a3c:	e1a00007 	mov	r0, r7
    3a40:	e1a02004 	mov	r2, r4
    3a44:	e1a050c5 	asr	r5, r5, #1
    3a48:	ee181a10 	vmov	r1, s16
    3a4c:	ebffff5f 	bl	37d0 <crearSincFunction>
    3a50:	e3540000 	cmp	r4, #0
    3a54:	da00000e 	ble	3a94 <crearHPF+0xf0>
    3a58:	eef70b00 	vmov.f64	d16, #112	; 0x70
    3a5c:	e1a02007 	mov	r2, r7
    3a60:	e1a01009 	mov	r1, r9
    3a64:	e3a03000 	mov	r3, #0
    3a68:	e1530005 	cmp	r3, r5
    3a6c:	0a000019 	beq	3ad8 <crearHPF+0x134>
    3a70:	ed927a00 	vldr	s14, [r2]
    3a74:	edd17a00 	vldr	s15, [r1]
    3a78:	ee677a67 	vnmul.f32	s15, s14, s15
    3a7c:	edc27a00 	vstr	s15, [r2]
    3a80:	e2833001 	add	r3, r3, #1
    3a84:	e2822004 	add	r2, r2, #4
    3a88:	e1530004 	cmp	r3, r4
    3a8c:	e2811004 	add	r1, r1, #4
    3a90:	1afffff4 	bne	3a68 <crearHPF+0xc4>
    3a94:	e0644008 	rsb	r4, r4, r8
    3a98:	e3a01000 	mov	r1, #0
    3a9c:	e087000a 	add	r0, r7, sl
    3aa0:	e1a02104 	lsl	r2, r4, #2
    3aa4:	ebfff8eb 	bl	1e58 <memset@plt>
    3aa8:	e51b2038 	ldr	r2, [fp, #-56]	; 0x38
    3aac:	e3a03000 	mov	r3, #0
    3ab0:	e51b003c 	ldr	r0, [fp, #-60]	; 0x3c
    3ab4:	e1a01007 	mov	r1, r7
    3ab8:	ebfff9ea 	bl	2268 <realFFT>
    3abc:	e51b2030 	ldr	r2, [fp, #-48]	; 0x30
    3ac0:	e5963000 	ldr	r3, [r6]
    3ac4:	e1520003 	cmp	r2, r3
    3ac8:	1a00000e 	bne	3b08 <crearHPF+0x164>
    3acc:	e24bd028 	sub	sp, fp, #40	; 0x28
    3ad0:	ecbd8b02 	vpop	{d8}
    3ad4:	e8bd8ff0 	pop	{r4, r5, r6, r7, r8, r9, sl, fp, pc}
    3ad8:	e1a0c103 	lsl	ip, r3, #2
    3adc:	e087000c 	add	r0, r7, ip
    3ae0:	edd07a00 	vldr	s15, [r0]
    3ae4:	eef71ae7 	vcvt.f64.f32	d17, s15
    3ae8:	e089c00c 	add	ip, r9, ip
    3aec:	eddc7a00 	vldr	s15, [ip]
    3af0:	ee701be1 	vsub.f64	d17, d16, d17
    3af4:	eef72ae7 	vcvt.f64.f32	d18, s15
    3af8:	ee621ba1 	vmul.f64	d17, d18, d17
    3afc:	eef77be1 	vcvt.f32.f64	s15, d17
    3b00:	edc07a00 	vstr	s15, [r0]
    3b04:	eaffffdd 	b	3a80 <crearHPF+0xdc>
    3b08:	ebfff8cc 	bl	1e40 <__stack_chk_fail@plt>
    3b0c:	00005524 	andeq	r5, r0, r4, lsr #10

00003b10 <crearBPF>:
    3b10:	eef71b00 	vmov.f64	d17, #112	; 0x70
    3b14:	ee071a90 	vmov	s15, r1
    3b18:	e92d4ff0 	push	{r4, r5, r6, r7, r8, r9, sl, fp, lr}
    3b1c:	ed2d8b02 	vpush	{d8}
    3b20:	e28db028 	add	fp, sp, #40	; 0x28
    3b24:	ee080a90 	vmov	s17, r0
    3b28:	e24dd014 	sub	sp, sp, #20
    3b2c:	e59f40c8 	ldr	r4, [pc, #200]	; 3bfc <crearBPF+0xec>
    3b30:	e1a0a002 	mov	sl, r2
    3b34:	e59b5004 	ldr	r5, [fp, #4]
    3b38:	e79f4004 	ldr	r4, [pc, r4]
    3b3c:	e1a07003 	mov	r7, r3
    3b40:	e59b9008 	ldr	r9, [fp, #8]
    3b44:	e5943000 	ldr	r3, [r4]
    3b48:	e1a02185 	lsl	r2, r5, #3
    3b4c:	e59b800c 	ldr	r8, [fp, #12]
    3b50:	e2822008 	add	r2, r2, #8
    3b54:	eef70ae7 	vcvt.f64.f32	d16, s15
    3b58:	e04dd002 	sub	sp, sp, r2
    3b5c:	e50b3030 	str	r3, [fp, #-48]	; 0x30
    3b60:	e28d6008 	add	r6, sp, #8
    3b64:	eec11ba0 	vdiv.f64	d17, d17, d16
    3b68:	eef10be1 	vsqrt.f64	d16, d17
    3b6c:	eef40b60 	vcmp.f64	d16, d16
    3b70:	eef1fa10 	vmrs	APSR_nzcv, fpscr
    3b74:	1a00001b 	bne	3be8 <crearBPF+0xd8>
    3b78:	eeb78be0 	vcvt.f32.f64	s16, d16
    3b7c:	e1a0100a 	mov	r1, sl
    3b80:	e1a02007 	mov	r2, r7
    3b84:	e1a03005 	mov	r3, r5
    3b88:	e58d9000 	str	r9, [sp]
    3b8c:	e58d8004 	str	r8, [sp, #4]
    3b90:	ee687a88 	vmul.f32	s15, s17, s16
    3b94:	ee170a90 	vmov	r0, s15
    3b98:	ebffff3c 	bl	3890 <crearLPF>
    3b9c:	eec87a88 	vdiv.f32	s15, s17, s16
    3ba0:	e1a03005 	mov	r3, r5
    3ba4:	e1a01006 	mov	r1, r6
    3ba8:	e1a02007 	mov	r2, r7
    3bac:	e58d9000 	str	r9, [sp]
    3bb0:	e58d8004 	str	r8, [sp, #4]
    3bb4:	ee170a90 	vmov	r0, s15
    3bb8:	ebffff79 	bl	39a4 <crearHPF>
    3bbc:	e1a02005 	mov	r2, r5
    3bc0:	e1a0000a 	mov	r0, sl
    3bc4:	e1a01006 	mov	r1, r6
    3bc8:	ebfffdb1 	bl	3294 <multiplicarEspectros>
    3bcc:	e51b2030 	ldr	r2, [fp, #-48]	; 0x30
    3bd0:	e5943000 	ldr	r3, [r4]
    3bd4:	e1520003 	cmp	r2, r3
    3bd8:	1a000006 	bne	3bf8 <crearBPF+0xe8>
    3bdc:	e24bd028 	sub	sp, fp, #40	; 0x28
    3be0:	ecbd8b02 	vpop	{d8}
    3be4:	e8bd8ff0 	pop	{r4, r5, r6, r7, r8, r9, sl, fp, pc}
    3be8:	ec510b31 	vmov	r0, r1, d17
    3bec:	ebfff89c 	bl	1e64 <sqrt@plt>
    3bf0:	ec410b30 	vmov	d16, r0, r1
    3bf4:	eaffffdf 	b	3b78 <crearBPF+0x68>
    3bf8:	ebfff890 	bl	1e40 <__stack_chk_fail@plt>
    3bfc:	000053d0 	ldrdeq	r5, [r0], -r0

00003c00 <escalera>:
    3c00:	e92d4ff0 	push	{r4, r5, r6, r7, r8, r9, sl, fp, lr}
    3c04:	ee072a10 	vmov	s14, r2
    3c08:	ed2d8b08 	vpush	{d8-d11}
    3c0c:	ee073a90 	vmov	s15, r3
    3c10:	eeb89ac7 	vcvt.f32.s32	s18, s14
    3c14:	ed9fbb55 	vldr	d11, [pc, #340]	; 3d70 <escalera+0x170>
    3c18:	e28db040 	add	fp, sp, #64	; 0x40
    3c1c:	e3a02001 	mov	r2, #1
    3c20:	e24dd00c 	sub	sp, sp, #12
    3c24:	e1a05000 	mov	r5, r0
    3c28:	e3a06000 	mov	r6, #0
    3c2c:	e1a0a002 	mov	sl, r2
    3c30:	eddf8a50 	vldr	s17, [pc, #320]	; 3d78 <escalera+0x178>
    3c34:	e50b1048 	str	r1, [fp, #-72]	; 0x48
    3c38:	ee187a90 	vmov	r7, s17
    3c3c:	e50b004c 	str	r0, [fp, #-76]	; 0x4c
    3c40:	eef89ae7 	vcvt.f32.s32	s19, s15
    3c44:	ee697a28 	vmul.f32	s15, s18, s17
    3c48:	e51b3048 	ldr	r3, [fp, #-72]	; 0x48
    3c4c:	e0834186 	add	r4, r3, r6, lsl #3
    3c50:	ee878aa9 	vdiv.f32	s16, s15, s19
    3c54:	ee07aa90 	vmov	s15, sl
    3c58:	eeb87be7 	vcvt.f64.s32	d7, s15
    3c5c:	eeb3aa04 	vmov.f32	s20, #52	; 0x34
    3c60:	ec598b17 	vmov	r8, r9, d7
    3c64:	ea00000d 	b	3ca0 <escalera+0xa0>
    3c68:	edd57a00 	vldr	s15, [r5]
    3c6c:	eec77a8a 	vdiv.f32	s15, s15, s20
    3c70:	e2866001 	add	r6, r6, #1
    3c74:	eef70ae7 	vcvt.f64.f32	d16, s15
    3c78:	ec532b30 	vmov	r2, r3, d16
    3c7c:	ebfff87b 	bl	1e70 <pow@plt>
    3c80:	ee076a10 	vmov	s14, r6
    3c84:	eef88ac7 	vcvt.f32.s32	s17, s14
    3c88:	e5047004 	str	r7, [r4, #-4]
    3c8c:	ee697a28 	vmul.f32	s15, s18, s17
    3c90:	ee878aa9 	vdiv.f32	s16, s15, s19
    3c94:	ec410b30 	vmov	d16, r0, r1
    3c98:	eef77be0 	vcvt.f32.f64	s15, d16
    3c9c:	ed447a02 	vstr	s15, [r4, #-8]
    3ca0:	e1a02008 	mov	r2, r8
    3ca4:	e1a03009 	mov	r3, r9
    3ca8:	e3a00000 	mov	r0, #0
    3cac:	e3a01000 	mov	r1, #0
    3cb0:	e3441010 	movt	r1, #16400	; 0x4010
    3cb4:	e2844008 	add	r4, r4, #8
    3cb8:	ebfff86c 	bl	1e70 <pow@plt>
    3cbc:	eef71ac8 	vcvt.f64.f32	d17, s16
    3cc0:	ec410b32 	vmov	d18, r0, r1
    3cc4:	ee620b8b 	vmul.f64	d16, d18, d11
    3cc8:	e3a01000 	mov	r1, #0
    3ccc:	e3a00000 	mov	r0, #0
    3cd0:	e3441024 	movt	r1, #16420	; 0x4024
    3cd4:	eef41be0 	vcmpe.f64	d17, d16
    3cd8:	eef1fa10 	vmrs	APSR_nzcv, fpscr
    3cdc:	4affffe1 	bmi	3c68 <escalera+0x68>
    3ce0:	e28aa001 	add	sl, sl, #1
    3ce4:	e2855004 	add	r5, r5, #4
    3ce8:	e35a0005 	cmp	sl, #5
    3cec:	1affffd4 	bne	3c44 <escalera+0x44>
    3cf0:	eeb49ac8 	vcmpe.f32	s18, s16
    3cf4:	e51ba04c 	ldr	sl, [fp, #-76]	; 0x4c
    3cf8:	eef1fa10 	vmrs	APSR_nzcv, fpscr
    3cfc:	da000018 	ble	3d64 <escalera+0x164>
    3d00:	eeb38a04 	vmov.f32	s16, #52	; 0x34
    3d04:	e51b3048 	ldr	r3, [fp, #-72]	; 0x48
    3d08:	e3a05000 	mov	r5, #0
    3d0c:	e0834186 	add	r4, r3, r6, lsl #3
    3d10:	edda7a04 	vldr	s15, [sl, #16]
    3d14:	eec77a88 	vdiv.f32	s15, s15, s16
    3d18:	e3a00000 	mov	r0, #0
    3d1c:	e3a01000 	mov	r1, #0
    3d20:	e3441024 	movt	r1, #16420	; 0x4024
    3d24:	e2866001 	add	r6, r6, #1
    3d28:	eef70ae7 	vcvt.f64.f32	d16, s15
    3d2c:	ec532b30 	vmov	r2, r3, d16
    3d30:	ebfff84e 	bl	1e70 <pow@plt>
    3d34:	ee076a10 	vmov	s14, r6
    3d38:	eef87ac7 	vcvt.f32.s32	s15, s14
    3d3c:	e5845004 	str	r5, [r4, #4]
    3d40:	ee697a27 	vmul.f32	s15, s18, s15
    3d44:	ee877aa9 	vdiv.f32	s14, s15, s19
    3d48:	ec410b30 	vmov	d16, r0, r1
    3d4c:	eef77be0 	vcvt.f32.f64	s15, d16
    3d50:	eeb49ac7 	vcmpe.f32	s18, s14
    3d54:	edc47a00 	vstr	s15, [r4]
    3d58:	e2844008 	add	r4, r4, #8
    3d5c:	eef1fa10 	vmrs	APSR_nzcv, fpscr
    3d60:	caffffea 	bgt	3d10 <escalera+0x110>
    3d64:	e24bd040 	sub	sp, fp, #64	; 0x40
    3d68:	ecbd8b08 	vpop	{d8-d11}
    3d6c:	e8bd8ff0 	pop	{r4, r5, r6, r7, r8, r9, sl, fp, pc}
    3d70:	00000000 	andeq	r0, r0, r0
    3d74:	40400000 	submi	r0, r0, r0
    3d78:	00000000 	andeq	r0, r0, r0

00003d7c <splineCubico>:
    3d7c:	e92d4ff0 	push	{r4, r5, r6, r7, r8, r9, sl, fp, lr}
    3d80:	ee043a10 	vmov	s8, r3
    3d84:	ed2d8b10 	vpush	{d8-d15}
    3d88:	ee002a10 	vmov	s0, r2
    3d8c:	eeb8dac4 	vcvt.f32.s32	s26, s8
    3d90:	e28db060 	add	fp, sp, #96	; 0x60
    3d94:	e59f929c 	ldr	r9, [pc, #668]	; 4038 <splineCubico+0x2bc>
    3d98:	e24dd014 	sub	sp, sp, #20
    3d9c:	ed9f9aa6 	vldr	s18, [pc, #664]	; 403c <splineCubico+0x2c0>
    3da0:	e79f9009 	ldr	r9, [pc, r9]
    3da4:	ed9feb9d 	vldr	d14, [pc, #628]	; 4020 <splineCubico+0x2a4>
    3da8:	ed9ffb9e 	vldr	d15, [pc, #632]	; 4028 <splineCubico+0x2ac>
    3dac:	e2894c01 	add	r4, r9, #256	; 0x100
    3db0:	e1a0a003 	mov	sl, r3
    3db4:	e1a05000 	mov	r5, r0
    3db8:	e1a03001 	mov	r3, r1
    3dbc:	e3a07000 	mov	r7, #0
    3dc0:	eef8bac0 	vcvt.f32.s32	s23, s0
    3dc4:	e50b1070 	str	r1, [fp, #-112]	; 0x70
    3dc8:	ee0d7a90 	vmov	s27, r7
    3dcc:	eef08a49 	vmov.f32	s17, s18
    3dd0:	ee697a2b 	vmul.f32	s15, s18, s23
    3dd4:	ee1d2a90 	vmov	r2, s27
    3dd8:	e2828001 	add	r8, r2, #1
    3ddc:	ee048a90 	vmov	s9, r8
    3de0:	e0836187 	add	r6, r3, r7, lsl #3
    3de4:	eeb84be4 	vcvt.f64.s32	d4, s9
    3de8:	ee878a8d 	vdiv.f32	s16, s15, s26
    3dec:	ed0b4b1b 	vstr	d4, [fp, #-108]	; 0xffffff94
    3df0:	ec532b14 	vmov	r2, r3, d4
    3df4:	ea000065 	b	3f90 <splineCubico+0x214>
    3df8:	ed9f9a8f 	vldr	s18, [pc, #572]	; 403c <splineCubico+0x2c0>
    3dfc:	eeb0ca68 	vmov.f32	s24, s17
    3e00:	ed957a00 	vldr	s14, [r5]
    3e04:	ed547a40 	vldr	s15, [r4, #-256]	; 0xffffff00
    3e08:	ed954a01 	vldr	s8, [r5, #4]
    3e0c:	ed544a3f 	vldr	s9, [r4, #-252]	; 0xffffff04
    3e10:	ed955a02 	vldr	s10, [r5, #8]
    3e14:	ed545a3e 	vldr	s11, [r4, #-248]	; 0xffffff08
    3e18:	ed956a03 	vldr	s12, [r5, #12]
    3e1c:	ee07ca27 	vmla.f32	s24, s14, s15
    3e20:	ed547a3d 	vldr	s15, [r4, #-244]	; 0xffffff0c
    3e24:	e3a02000 	mov	r2, #0
    3e28:	e3a03000 	mov	r3, #0
    3e2c:	e3443008 	movt	r3, #16392	; 0x4008
    3e30:	edd56a04 	vldr	s13, [r5, #16]
    3e34:	ed147a3c 	vldr	s14, [r4, #-240]	; 0xffffff10
    3e38:	ee04ca24 	vmla.f32	s24, s8, s9
    3e3c:	ee05ca25 	vmla.f32	s24, s10, s11
    3e40:	ee06ca27 	vmla.f32	s24, s12, s15
    3e44:	eef87aed 	vcvt.f32.s32	s15, s27
    3e48:	ee399a67 	vsub.f32	s18, s18, s15
    3e4c:	eeb79ac9 	vcvt.f64.f32	d9, s18
    3e50:	ec510b19 	vmov	r0, r1, d9
    3e54:	ee06ca87 	vmla.f32	s24, s13, s14
    3e58:	ebfff804 	bl	1e70 <pow@plt>
    3e5c:	edd57a00 	vldr	s15, [r5]
    3e60:	ed546a2c 	vldr	s13, [r4, #-176]	; 0xffffff50
    3e64:	ed953a01 	vldr	s6, [r5, #4]
    3e68:	ed54aa2b 	vldr	s21, [r4, #-172]	; 0xffffff54
    3e6c:	ed147a18 	vldr	s14, [r4, #-96]	; 0xffffffa0
    3e70:	edd55a02 	vldr	s11, [r5, #8]
    3e74:	ed14aa2a 	vldr	s20, [r4, #-168]	; 0xffffff58
    3e78:	ed148a17 	vldr	s16, [r4, #-92]	; 0xffffffa4
    3e7c:	ed956a03 	vldr	s12, [r5, #12]
    3e80:	ed140a29 	vldr	s0, [r4, #-164]	; 0xffffff5c
    3e84:	ed540a04 	vldr	s1, [r4, #-16]
    3e88:	ed141a16 	vldr	s2, [r4, #-88]	; 0xffffffa8
    3e8c:	ed541a28 	vldr	s3, [r4, #-160]	; 0xffffff60
    3e90:	ed142a03 	vldr	s4, [r4, #-12]
    3e94:	ed542a15 	vldr	s5, [r4, #-84]	; 0xffffffac
    3e98:	ed544a02 	vldr	s9, [r4, #-8]
    3e9c:	ed145a14 	vldr	s10, [r4, #-80]	; 0xffffffb0
    3ea0:	ed144a01 	vldr	s8, [r4, #-4]
    3ea4:	ed94ba00 	vldr	s22, [r4]
    3ea8:	eef03a68 	vmov.f32	s7, s17
    3eac:	ee473aa6 	vmla.f32	s7, s15, s13
    3eb0:	edd56a04 	vldr	s13, [r5, #16]
    3eb4:	ec410b31 	vmov	d17, r0, r1
    3eb8:	e3a00000 	mov	r0, #0
    3ebc:	e3a01000 	mov	r1, #0
    3ec0:	e3441024 	movt	r1, #16420	; 0x4024
    3ec4:	ee433a2a 	vmla.f32	s7, s6, s21
    3ec8:	eef0aa68 	vmov.f32	s21, s17
    3ecc:	ee47aa87 	vmla.f32	s21, s15, s14
    3ed0:	ee453a8a 	vmla.f32	s7, s11, s20
    3ed4:	eeb07a6a 	vmov.f32	s14, s21
    3ed8:	ee037a08 	vmla.f32	s14, s6, s16
    3edc:	ee463a00 	vmla.f32	s7, s12, s0
    3ee0:	eeb7cacc 	vcvt.f64.f32	d12, s24
    3ee4:	eef00b4f 	vmov.f64	d16, d15
    3ee8:	eeb00a68 	vmov.f32	s0, s17
    3eec:	ee4c0b21 	vmla.f64	d16, d12, d17
    3ef0:	ee070aa0 	vmla.f32	s0, s15, s1
    3ef4:	ee057a81 	vmla.f32	s14, s11, s2
    3ef8:	ee463aa1 	vmla.f32	s7, s13, s3
    3efc:	ee691b09 	vmul.f64	d17, d9, d9
    3f00:	eef07a40 	vmov.f32	s15, s0
    3f04:	eef71be0 	vcvt.f32.f64	s3, d16
    3f08:	ee437a02 	vmla.f32	s15, s6, s4
    3f0c:	ee067a22 	vmla.f32	s14, s12, s5
    3f10:	eef70ae1 	vcvt.f64.f32	d16, s3
    3f14:	eef72ae3 	vcvt.f64.f32	d18, s7
    3f18:	ee420ba1 	vmla.f64	d16, d18, d17
    3f1c:	ee457aa4 	vmla.f32	s15, s11, s9
    3f20:	ee067a85 	vmla.f32	s14, s13, s10
    3f24:	eef75be0 	vcvt.f32.f64	s11, d16
    3f28:	ee467a04 	vmla.f32	s15, s12, s8
    3f2c:	eef71ac7 	vcvt.f64.f32	d17, s14
    3f30:	eef70ae5 	vcvt.f64.f32	d16, s11
    3f34:	ee490b21 	vmla.f64	d16, d9, d17
    3f38:	ee467a8b 	vmla.f32	s15, s13, s22
    3f3c:	eeb77be0 	vcvt.f32.f64	s14, d16
    3f40:	eef71ae7 	vcvt.f64.f32	d17, s15
    3f44:	eef70ac7 	vcvt.f64.f32	d16, s14
    3f48:	ee700ba1 	vadd.f64	d16, d16, d17
    3f4c:	eef37a04 	vmov.f32	s15, #52	; 0x34
    3f50:	eeb77be0 	vcvt.f32.f64	s14, d16
    3f54:	eec77a27 	vdiv.f32	s15, s14, s15
    3f58:	eeb74ae7 	vcvt.f64.f32	d4, s15
    3f5c:	ec532b14 	vmov	r2, r3, d4
    3f60:	ebfff7c2 	bl	1e70 <pow@plt>
    3f64:	ec410b30 	vmov	d16, r0, r1
    3f68:	eef77be0 	vcvt.f32.f64	s15, d16
    3f6c:	e2877001 	add	r7, r7, #1
    3f70:	ee007a10 	vmov	s0, r7
    3f74:	eeb89ac0 	vcvt.f32.s32	s18, s0
    3f78:	edc67a00 	vstr	s15, [r6]
    3f7c:	edc68a01 	vstr	s17, [r6, #4]
    3f80:	e2866008 	add	r6, r6, #8
    3f84:	e14b26dc 	ldrd	r2, [fp, #-108]	; 0xffffff94
    3f88:	ee697a2b 	vmul.f32	s15, s18, s23
    3f8c:	ee878a8d 	vdiv.f32	s16, s15, s26
    3f90:	e3a00000 	mov	r0, #0
    3f94:	e3a01000 	mov	r1, #0
    3f98:	e3441010 	movt	r1, #16400	; 0x4010
    3f9c:	ebfff7b3 	bl	1e70 <pow@plt>
    3fa0:	eef70ac8 	vcvt.f64.f32	d16, s16
    3fa4:	ec410b14 	vmov	d4, r0, r1
    3fa8:	ee641b0e 	vmul.f64	d17, d4, d14
    3fac:	eef40be1 	vcmpe.f64	d16, d17
    3fb0:	eef1fa10 	vmrs	APSR_nzcv, fpscr
    3fb4:	5a000012 	bpl	4004 <splineCubico+0x288>
    3fb8:	e157000a 	cmp	r7, sl
    3fbc:	aa000010 	bge	4004 <splineCubico+0x288>
    3fc0:	e3580001 	cmp	r8, #1
    3fc4:	eeb58a40 	vcmp.f32	s16, #0.0
    3fc8:	0a00006c 	beq	4180 <splineCubico+0x404>
    3fcc:	eef1fa10 	vmrs	APSR_nzcv, fpscr
    3fd0:	0affff88 	beq	3df8 <splineCubico+0x7c>
    3fd4:	e3a02000 	mov	r2, #0
    3fd8:	e3a03000 	mov	r3, #0
    3fdc:	e3433f90 	movt	r3, #16272	; 0x3f90
    3fe0:	ec432b14 	vmov	d4, r2, r3
    3fe4:	ee602b84 	vmul.f64	d18, d16, d4
    3fe8:	ec510b32 	vmov	r0, r1, d18
    3fec:	ebfff7a2 	bl	1e7c <log10@plt>
    3ff0:	eddf0b0e 	vldr	d16, [pc, #56]	; 4030 <splineCubico+0x2b4>
    3ff4:	ec410b14 	vmov	d4, r0, r1
    3ff8:	ee849b20 	vdiv.f64	d9, d4, d16
    3ffc:	eeb79bc9 	vcvt.f32.f64	s18, d9
    4000:	eaffff7d 	b	3dfc <splineCubico+0x80>
    4004:	e3580004 	cmp	r8, #4
    4008:	e2844014 	add	r4, r4, #20
    400c:	0a00000b 	beq	4040 <splineCubico+0x2c4>
    4010:	ee0d8a90 	vmov	s27, r8
    4014:	e51b3070 	ldr	r3, [fp, #-112]	; 0x70
    4018:	eaffff6c 	b	3dd0 <splineCubico+0x54>
    401c:	e320f000 	nop	{0}
    4020:	00000000 	andeq	r0, r0, r0
    4024:	40500000 	subsmi	r0, r0, r0
	...
    4030:	55475a32 	strbpl	r5, [r7, #-2610]	; 0xa32
    4034:	3fe34413 	svccc	0x00e34413
    4038:	0000519c 	muleq	r0, ip, r1
    403c:	00000000 	andeq	r0, r0, r0
    4040:	e08a6faa 	add	r6, sl, sl, lsr #31
    4044:	e51b2070 	ldr	r2, [fp, #-112]	; 0x70
    4048:	e1a0800a 	mov	r8, sl
    404c:	e06760c6 	rsb	r6, r7, r6, asr #1
    4050:	e0823187 	add	r3, r2, r7, lsl #3
    4054:	ed13aa02 	vldr	s20, [r3, #-8]
    4058:	e1a06086 	lsl	r6, r6, #1
    405c:	e3560000 	cmp	r6, #0
    4060:	da000025 	ble	40fc <splineCubico+0x380>
    4064:	eef28a08 	vmov.f32	s17, #40	; 0x28
    4068:	ee006a10 	vmov	s0, r6
    406c:	e1a05003 	mov	r5, r3
    4070:	e3a04000 	mov	r4, #0
    4074:	e3a0a000 	mov	sl, #0
    4078:	eeb19a08 	vmov.f32	s18, #24
    407c:	eef89ac0 	vcvt.f32.s32	s19, s0
    4080:	eeb7aaca 	vcvt.f64.f32	d10, s20
    4084:	ee044a10 	vmov	s8, r4
    4088:	eef87ac4 	vcvt.f32.s32	s15, s8
    408c:	e2844001 	add	r4, r4, #1
    4090:	eec77aa9 	vdiv.f32	s15, s15, s19
    4094:	eef04a49 	vmov.f32	s9, s18
    4098:	ee574aa8 	vnmls.f32	s9, s15, s17
    409c:	eef17a64 	vneg.f32	s15, s9
    40a0:	eef70ae7 	vcvt.f64.f32	d16, s15
    40a4:	ec510b30 	vmov	r0, r1, d16
    40a8:	ebfff776 	bl	1e88 <exp@plt>
    40ac:	eef70b00 	vmov.f64	d16, #112	; 0x70
    40b0:	e0873004 	add	r3, r7, r4
    40b4:	ee003a10 	vmov	s0, r3
    40b8:	e1540006 	cmp	r4, r6
    40bc:	e585a004 	str	sl, [r5, #4]
    40c0:	ee7a2b60 	vsub.f64	d18, d10, d16
    40c4:	eef87ac0 	vcvt.f32.s32	s15, s0
    40c8:	ec410b14 	vmov	d4, r0, r1
    40cc:	eeb77bc4 	vcvt.f32.f64	s14, d4
    40d0:	eef71ac7 	vcvt.f64.f32	d17, s14
    40d4:	ee713ba0 	vadd.f64	d19, d17, d16
    40d8:	eec11ba3 	vdiv.f64	d17, d17, d19
    40dc:	ee420ba1 	vmla.f64	d16, d18, d17
    40e0:	ee277aab 	vmul.f32	s14, s15, s23
    40e4:	eef77be0 	vcvt.f32.f64	s15, d16
    40e8:	ee878a0d 	vdiv.f32	s16, s14, s26
    40ec:	edc57a00 	vstr	s15, [r5]
    40f0:	e2855008 	add	r5, r5, #8
    40f4:	1affffe2 	bne	4084 <splineCubico+0x308>
    40f8:	e1a07003 	mov	r7, r3
    40fc:	eeb48aeb 	vcmpe.f32	s16, s23
    4100:	eef1fa10 	vmrs	APSR_nzcv, fpscr
    4104:	53a03000 	movpl	r3, #0
    4108:	43a03001 	movmi	r3, #1
    410c:	e1580007 	cmp	r8, r7
    4110:	d3a03000 	movle	r3, #0
    4114:	c2033001 	andgt	r3, r3, #1
    4118:	e3530000 	cmp	r3, #0
    411c:	0a000014 	beq	4174 <splineCubico+0x3f8>
    4120:	e51b2070 	ldr	r2, [fp, #-112]	; 0x70
    4124:	e3a005fe 	mov	r0, #1065353216	; 0x3f800000
    4128:	e3a01000 	mov	r1, #0
    412c:	e0823187 	add	r3, r2, r7, lsl #3
    4130:	e2877001 	add	r7, r7, #1
    4134:	ee007a10 	vmov	s0, r7
    4138:	eef87ac0 	vcvt.f32.s32	s15, s0
    413c:	e5830000 	str	r0, [r3]
    4140:	e5831004 	str	r1, [r3, #4]
    4144:	e2833008 	add	r3, r3, #8
    4148:	ee677aab 	vmul.f32	s15, s15, s23
    414c:	eec77a8d 	vdiv.f32	s15, s15, s26
    4150:	eef47aeb 	vcmpe.f32	s15, s23
    4154:	eef1fa10 	vmrs	APSR_nzcv, fpscr
    4158:	53a02000 	movpl	r2, #0
    415c:	43a02001 	movmi	r2, #1
    4160:	e1580007 	cmp	r8, r7
    4164:	d3a02000 	movle	r2, #0
    4168:	c2022001 	andgt	r2, r2, #1
    416c:	e3520000 	cmp	r2, #0
    4170:	1affffee 	bne	4130 <splineCubico+0x3b4>
    4174:	e24bd060 	sub	sp, fp, #96	; 0x60
    4178:	ecbd8b10 	vpop	{d8-d15}
    417c:	e8bd8ff0 	pop	{r4, r5, r6, r7, r8, r9, sl, fp, pc}
    4180:	eef1fa10 	vmrs	APSR_nzcv, fpscr
    4184:	1a00006d 	bne	4340 <splineCubico+0x5c4>
    4188:	ed1f9a55 	vldr	s18, [pc, #-340]	; 403c <splineCubico+0x2c0>
    418c:	eeb0aa68 	vmov.f32	s20, s17
    4190:	ed957a00 	vldr	s14, [r5]
    4194:	edd97a00 	vldr	s15, [r9]
    4198:	ed954a01 	vldr	s8, [r5, #4]
    419c:	edd94a01 	vldr	s9, [r9, #4]
    41a0:	ed955a02 	vldr	s10, [r5, #8]
    41a4:	edd95a02 	vldr	s11, [r9, #8]
    41a8:	ed956a03 	vldr	s12, [r5, #12]
    41ac:	ee07aa27 	vmla.f32	s20, s14, s15
    41b0:	edd96a03 	vldr	s13, [r9, #12]
    41b4:	e3a02000 	mov	r2, #0
    41b8:	e3a03000 	mov	r3, #0
    41bc:	e3443008 	movt	r3, #16392	; 0x4008
    41c0:	ed957a04 	vldr	s14, [r5, #16]
    41c4:	edd97a04 	vldr	s15, [r9, #16]
    41c8:	ee04aa24 	vmla.f32	s20, s8, s9
    41cc:	ee05aa25 	vmla.f32	s20, s10, s11
    41d0:	ee06aa26 	vmla.f32	s20, s12, s13
    41d4:	eeb79ac9 	vcvt.f64.f32	d9, s18
    41d8:	ec510b19 	vmov	r0, r1, d9
    41dc:	ee07aa27 	vmla.f32	s20, s14, s15
    41e0:	ebfff722 	bl	1e70 <pow@plt>
    41e4:	edd57a00 	vldr	s15, [r5]
    41e8:	edd96a14 	vldr	s13, [r9, #80]	; 0x50
    41ec:	ed956a01 	vldr	s12, [r5, #4]
    41f0:	edd94a28 	vldr	s9, [r9, #160]	; 0xa0
    41f4:	edd55a02 	vldr	s11, [r5, #8]
    41f8:	edd93a16 	vldr	s7, [r9, #88]	; 0x58
    41fc:	ed993a29 	vldr	s6, [r9, #164]	; 0xa4
    4200:	ed955a03 	vldr	s10, [r5, #12]
    4204:	edd92a17 	vldr	s5, [r9, #92]	; 0x5c
    4208:	ed992a3c 	vldr	s4, [r9, #240]	; 0xf0
    420c:	edd91a2a 	vldr	s3, [r9, #168]	; 0xa8
    4210:	ed954a04 	vldr	s8, [r5, #16]
    4214:	ed991a18 	vldr	s2, [r9, #96]	; 0x60
    4218:	edd90a3d 	vldr	s1, [r9, #244]	; 0xf4
    421c:	ed990a2b 	vldr	s0, [r9, #172]	; 0xac
    4220:	ed99ba3e 	vldr	s22, [r9, #248]	; 0xf8
    4224:	ed99ca2c 	vldr	s24, [r9, #176]	; 0xb0
    4228:	edd9ca3f 	vldr	s25, [r9, #252]	; 0xfc
    422c:	eeb07a68 	vmov.f32	s14, s17
    4230:	ee077aa6 	vmla.f32	s14, s15, s13
    4234:	ec410b30 	vmov	d16, r0, r1
    4238:	e3a00000 	mov	r0, #0
    423c:	e3a01000 	mov	r1, #0
    4240:	e3441024 	movt	r1, #16420	; 0x4024
    4244:	eef06a47 	vmov.f32	s13, s14
    4248:	ed997a15 	vldr	s14, [r9, #84]	; 0x54
    424c:	ee466a07 	vmla.f32	s13, s12, s14
    4250:	eeb07a68 	vmov.f32	s14, s17
    4254:	ee077aa4 	vmla.f32	s14, s15, s9
    4258:	ee456aa3 	vmla.f32	s13, s11, s7
    425c:	ee067a03 	vmla.f32	s14, s12, s6
    4260:	ee456a22 	vmla.f32	s13, s10, s5
    4264:	eeb7aaca 	vcvt.f64.f32	d10, s20
    4268:	eef02b4f 	vmov.f64	d18, d15
    426c:	eef04a68 	vmov.f32	s9, s17
    4270:	ee4a2b20 	vmla.f64	d18, d10, d16
    4274:	ee474a82 	vmla.f32	s9, s15, s4
    4278:	ee057aa1 	vmla.f32	s14, s11, s3
    427c:	ee446a01 	vmla.f32	s13, s8, s2
    4280:	ee691b09 	vmul.f64	d17, d9, d9
    4284:	eef07a64 	vmov.f32	s15, s9
    4288:	eef74be2 	vcvt.f32.f64	s9, d18
    428c:	ee467a20 	vmla.f32	s15, s12, s1
    4290:	ee057a00 	vmla.f32	s14, s10, s0
    4294:	eef70ae6 	vcvt.f64.f32	d16, s13
    4298:	eef72ae4 	vcvt.f64.f32	d18, s9
    429c:	ee402ba1 	vmla.f64	d18, d16, d17
    42a0:	ee457a8b 	vmla.f32	s15, s11, s22
    42a4:	ee047a0c 	vmla.f32	s14, s8, s24
    42a8:	eef76be2 	vcvt.f32.f64	s13, d18
    42ac:	ee457a2c 	vmla.f32	s15, s10, s25
    42b0:	eef70ac7 	vcvt.f64.f32	d16, s14
    42b4:	ed997a40 	vldr	s14, [r9, #256]	; 0x100
    42b8:	eef72ae6 	vcvt.f64.f32	d18, s13
    42bc:	ee492b20 	vmla.f64	d18, d9, d16
    42c0:	ee447a07 	vmla.f32	s15, s8, s14
    42c4:	eeb77be2 	vcvt.f32.f64	s14, d18
    42c8:	eef71ae7 	vcvt.f64.f32	d17, s15
    42cc:	eef70ac7 	vcvt.f64.f32	d16, s14
    42d0:	ee700ba1 	vadd.f64	d16, d16, d17
    42d4:	eef37a04 	vmov.f32	s15, #52	; 0x34
    42d8:	eeb77be0 	vcvt.f32.f64	s14, d16
    42dc:	eec77a27 	vdiv.f32	s15, s14, s15
    42e0:	eef70ae7 	vcvt.f64.f32	d16, s15
    42e4:	ec532b30 	vmov	r2, r3, d16
    42e8:	ebfff6e0 	bl	1e70 <pow@plt>
    42ec:	eddf0b1f 	vldr	d16, [pc, #124]	; 4370 <splineCubico+0x5f4>
    42f0:	ec410b31 	vmov	d17, r0, r1
    42f4:	eef77be1 	vcvt.f32.f64	s15, d17
    42f8:	eef73ae7 	vcvt.f64.f32	d19, s15
    42fc:	ee730be0 	vsub.f64	d16, d19, d16
    4300:	eef50bc0 	vcmpe.f64	d16, #0.0
    4304:	eef1fa10 	vmrs	APSR_nzcv, fpscr
    4308:	daffff17 	ble	3f6c <splineCubico+0x1f0>
    430c:	eddf7a1d 	vldr	s15, [pc, #116]	; 4388 <splineCubico+0x60c>
    4310:	ee687a27 	vmul.f32	s15, s16, s15
    4314:	eddf0b17 	vldr	d16, [pc, #92]	; 4378 <splineCubico+0x5fc>
    4318:	eef72b00 	vmov.f64	d18, #112	; 0x70
    431c:	eef71ae7 	vcvt.f64.f32	d17, s15
    4320:	ee721be1 	vsub.f64	d17, d18, d17
    4324:	ee611ba0 	vmul.f64	d17, d17, d16
    4328:	ee730be2 	vsub.f64	d16, d19, d18
    432c:	eec00ba1 	vdiv.f64	d16, d16, d17
    4330:	ee700ba2 	vadd.f64	d16, d16, d18
    4334:	eef77be0 	vcvt.f32.f64	s15, d16
    4338:	edc67a00 	vstr	s15, [r6]
    433c:	eaffff0a 	b	3f6c <splineCubico+0x1f0>
    4340:	e3a02000 	mov	r2, #0
    4344:	e3a03000 	mov	r3, #0
    4348:	e3433f90 	movt	r3, #16272	; 0x3f90
    434c:	ec432b31 	vmov	d17, r2, r3
    4350:	ee207ba1 	vmul.f64	d7, d16, d17
    4354:	ec510b17 	vmov	r0, r1, d7
    4358:	ebfff6c7 	bl	1e7c <log10@plt>
    435c:	eddf0b07 	vldr	d16, [pc, #28]	; 4380 <splineCubico+0x604>
    4360:	ec410b14 	vmov	d4, r0, r1
    4364:	ee849b20 	vdiv.f64	d9, d4, d16
    4368:	eeb79bc9 	vcvt.f32.f64	s18, d9
    436c:	eaffff86 	b	418c <splineCubico+0x410>
    4370:	c28f5c29 	addgt	r5, pc, #10496	; 0x2900
    4374:	3ff028f5 	svccc	0x00f028f5
    4378:	00000000 	andeq	r0, r0, r0
    437c:	40590000 	subsmi	r0, r9, r0
    4380:	55475a32 	strbpl	r5, [r7, #-2610]	; 0xa32
    4384:	3fe34413 	svccc	0x00e34413
    4388:	3c800000 	stccc	0, cr0, [r0], {0}
    438c:	e320f000 	nop	{0}

00004390 <actualizarFiltro>:
    4390:	e92d4ff0 	push	{r4, r5, r6, r7, r8, r9, sl, fp, lr}
    4394:	e28db020 	add	fp, sp, #32
    4398:	e24dd00c 	sub	sp, sp, #12
    439c:	e1a05000 	mov	r5, r0
    43a0:	e1a00001 	mov	r0, r1
    43a4:	e2859050 	add	r9, r5, #80	; 0x50
    43a8:	e595a0f4 	ldr	sl, [r5, #244]	; 0xf4
    43ac:	e5958104 	ldr	r8, [r5, #260]	; 0x104
    43b0:	e595c0fc 	ldr	ip, [r5, #252]	; 0xfc
    43b4:	e595e110 	ldr	lr, [r5, #272]	; 0x110
    43b8:	e1a0300a 	mov	r3, sl
    43bc:	e5954000 	ldr	r4, [r5]
    43c0:	e1a01008 	mov	r1, r8
    43c4:	e5952008 	ldr	r2, [r5, #8]
    43c8:	e5957108 	ldr	r7, [r5, #264]	; 0x108
    43cc:	e595610c 	ldr	r6, [r5, #268]	; 0x10c
    43d0:	e50be028 	str	lr, [fp, #-40]	; 0x28
    43d4:	e50bc02c 	str	ip, [fp, #-44]	; 0x2c
    43d8:	ebfffe67 	bl	3d7c <splineCubico>
    43dc:	e285007c 	add	r0, r5, #124	; 0x7c
    43e0:	e0845fa4 	add	r5, r4, r4, lsr #31
    43e4:	e1a01007 	mov	r1, r7
    43e8:	e1a02008 	mov	r2, r8
    43ec:	e1a050c5 	asr	r5, r5, #1
    43f0:	ebfff9da 	bl	2b60 <complexIFFT>
    43f4:	e065a00a 	rsb	sl, r5, sl
    43f8:	e1a01007 	mov	r1, r7
    43fc:	e1a05185 	lsl	r5, r5, #3
    4400:	e1a0a18a 	lsl	sl, sl, #3
    4404:	e0860005 	add	r0, r6, r5
    4408:	e1a0200a 	mov	r2, sl
    440c:	ebfff68e 	bl	1e4c <memcpy@plt>
    4410:	e1a00006 	mov	r0, r6
    4414:	e087100a 	add	r1, r7, sl
    4418:	e1a02005 	mov	r2, r5
    441c:	ebfff68a 	bl	1e4c <memcpy@plt>
    4420:	e3540000 	cmp	r4, #0
    4424:	e51bc02c 	ldr	ip, [fp, #-44]	; 0x2c
    4428:	da00000e 	ble	4468 <actualizarFiltro+0xd8>
    442c:	e51b1028 	ldr	r1, [fp, #-40]	; 0x28
    4430:	e1a03006 	mov	r3, r6
    4434:	e3a02000 	mov	r2, #0
    4438:	edd17a00 	vldr	s15, [r1]
    443c:	ed937a00 	vldr	s14, [r3]
    4440:	ee677a27 	vmul.f32	s15, s14, s15
    4444:	ed937a01 	vldr	s14, [r3, #4]
    4448:	e2822001 	add	r2, r2, #1
    444c:	e1520004 	cmp	r2, r4
    4450:	edc37a00 	vstr	s15, [r3]
    4454:	ecf17a01 	vldmia	r1!, {s15}
    4458:	ee677a27 	vmul.f32	s15, s14, s15
    445c:	edc37a01 	vstr	s15, [r3, #4]
    4460:	e2833008 	add	r3, r3, #8
    4464:	1afffff3 	bne	4438 <actualizarFiltro+0xa8>
    4468:	e1a00009 	mov	r0, r9
    446c:	e1a01006 	mov	r1, r6
    4470:	e1a0200c 	mov	r2, ip
    4474:	e24bd020 	sub	sp, fp, #32
    4478:	e8bd4ff0 	pop	{r4, r5, r6, r7, r8, r9, sl, fp, lr}
    447c:	eafff95e 	b	29fc <complexFFT>

00004480 <inicializarEQ>:
    4480:	e92d4ff0 	push	{r4, r5, r6, r7, r8, r9, sl, fp, lr}
    4484:	e1a04000 	mov	r4, r0
    4488:	e28db020 	add	fp, sp, #32
    448c:	e24dd02c 	sub	sp, sp, #44	; 0x2c
    4490:	e1a09081 	lsl	r9, r1, #1
    4494:	e5802008 	str	r2, [r0, #8]
    4498:	e1a05001 	mov	r5, r1
    449c:	e5841004 	str	r1, [r4, #4]
    44a0:	e1a08003 	mov	r8, r3
    44a4:	e5809000 	str	r9, [r0]
    44a8:	e1a00101 	lsl	r0, r1, #2
    44ac:	e584300c 	str	r3, [r4, #12]
    44b0:	e289a001 	add	sl, r9, #1
    44b4:	ebfff64c 	bl	1dec <malloc@plt>
    44b8:	e0050598 	mul	r5, r8, r5
    44bc:	e1a0a18a 	lsl	sl, sl, #3
    44c0:	e3a07000 	mov	r7, #0
    44c4:	e1a06004 	mov	r6, r4
    44c8:	e0855fa5 	add	r5, r5, r5, lsr #31
    44cc:	e1a050c5 	asr	r5, r5, #1
    44d0:	e58400d4 	str	r0, [r4, #212]	; 0xd4
    44d4:	e1a0000a 	mov	r0, sl
    44d8:	ebfff643 	bl	1dec <malloc@plt>
    44dc:	e58400d8 	str	r0, [r4, #216]	; 0xd8
    44e0:	e1a0000a 	mov	r0, sl
    44e4:	ebfff640 	bl	1dec <malloc@plt>
    44e8:	e1a0a105 	lsl	sl, r5, #2
    44ec:	e1a03085 	lsl	r3, r5, #1
    44f0:	e5845014 	str	r5, [r4, #20]
    44f4:	e5843018 	str	r3, [r4, #24]
    44f8:	e1a02205 	lsl	r2, r5, #4
    44fc:	e584501c 	str	r5, [r4, #28]
    4500:	e584a020 	str	sl, [r4, #32]
    4504:	e50b2040 	str	r2, [fp, #-64]	; 0x40
    4508:	e58400dc 	str	r0, [r4, #220]	; 0xdc
    450c:	e1a0000a 	mov	r0, sl
    4510:	ebfff635 	bl	1dec <malloc@plt>
    4514:	e58400e0 	str	r0, [r4, #224]	; 0xe0
    4518:	e08a0185 	add	r0, sl, r5, lsl #3
    451c:	ebfff632 	bl	1dec <malloc@plt>
    4520:	e58400e4 	str	r0, [r4, #228]	; 0xe4
    4524:	e51b0040 	ldr	r0, [fp, #-64]	; 0x40
    4528:	ebfff62f 	bl	1dec <malloc@plt>
    452c:	e58400e8 	str	r0, [r4, #232]	; 0xe8
    4530:	e51b0040 	ldr	r0, [fp, #-64]	; 0x40
    4534:	ebfff62c 	bl	1dec <malloc@plt>
    4538:	e51b3040 	ldr	r3, [fp, #-64]	; 0x40
    453c:	e58400ec 	str	r0, [r4, #236]	; 0xec
    4540:	e083000a 	add	r0, r3, sl
    4544:	ebfff628 	bl	1dec <malloc@plt>
    4548:	e1a01009 	mov	r1, r9
    454c:	e1a02008 	mov	r2, r8
    4550:	e58400f0 	str	r0, [r4, #240]	; 0xf0
    4554:	e2840024 	add	r0, r4, #36	; 0x24
    4558:	ebfffa0d 	bl	2d94 <inicializarFFT>
    455c:	e5941000 	ldr	r1, [r4]
    4560:	e284007c 	add	r0, r4, #124	; 0x7c
    4564:	e1a02007 	mov	r2, r7
    4568:	e5847010 	str	r7, [r4, #16]
    456c:	e1a01101 	lsl	r1, r1, #2
    4570:	e58410f4 	str	r1, [r4, #244]	; 0xf4
    4574:	ebfffa06 	bl	2d94 <inicializarFFT>
    4578:	e49610a8 	ldr	r1, [r6], #168	; 0xa8
    457c:	e1a02007 	mov	r2, r7
    4580:	e2840050 	add	r0, r4, #80	; 0x50
    4584:	ebfffa02 	bl	2d94 <inicializarFFT>
    4588:	e3a02001 	mov	r2, #1
    458c:	e5941000 	ldr	r1, [r4]
    4590:	e1a00006 	mov	r0, r6
    4594:	ebfff9fe 	bl	2d94 <inicializarFFT>
    4598:	e5946000 	ldr	r6, [r4]
    459c:	e2865001 	add	r5, r6, #1
    45a0:	e1a05185 	lsl	r5, r5, #3
    45a4:	e1a00005 	mov	r0, r5
    45a8:	ebfff60f 	bl	1dec <malloc@plt>
    45ac:	e1a07000 	mov	r7, r0
    45b0:	e1a00005 	mov	r0, r5
    45b4:	e58470fc 	str	r7, [r4, #252]	; 0xfc
    45b8:	ebfff60b 	bl	1dec <malloc@plt>
    45bc:	e59450f4 	ldr	r5, [r4, #244]	; 0xf4
    45c0:	e58470f8 	str	r7, [r4, #248]	; 0xf8
    45c4:	e1a05185 	lsl	r5, r5, #3
    45c8:	e5840100 	str	r0, [r4, #256]	; 0x100
    45cc:	e1a00005 	mov	r0, r5
    45d0:	ebfff605 	bl	1dec <malloc@plt>
    45d4:	e5840104 	str	r0, [r4, #260]	; 0x104
    45d8:	e1a00005 	mov	r0, r5
    45dc:	ebfff602 	bl	1dec <malloc@plt>
    45e0:	e5840108 	str	r0, [r4, #264]	; 0x108
    45e4:	e1a00005 	mov	r0, r5
    45e8:	ebfff5ff 	bl	1dec <malloc@plt>
    45ec:	e584010c 	str	r0, [r4, #268]	; 0x10c
    45f0:	e1a00106 	lsl	r0, r6, #2
    45f4:	ebfff5fc 	bl	1dec <malloc@plt>
    45f8:	e5941004 	ldr	r1, [r4, #4]
    45fc:	e5840110 	str	r0, [r4, #272]	; 0x110
    4600:	e59400d4 	ldr	r0, [r4, #212]	; 0xd4
    4604:	ebfffc00 	bl	360c <crearBartlett>
    4608:	e5940110 	ldr	r0, [r4, #272]	; 0x110
    460c:	e5941000 	ldr	r1, [r4]
    4610:	e3062a01 	movw	r2, #27137	; 0x6a01
    4614:	e3063302 	movw	r3, #25346	; 0x6302
    4618:	e3432eda 	movt	r2, #16090	; 0x3eda
    461c:	e3433d9d 	movt	r3, #15773	; 0x3d9d
    4620:	e58d3000 	str	r3, [sp]
    4624:	e3033d1d 	movw	r3, #15645	; 0x3d1d
    4628:	e3433efe 	movt	r3, #16126	; 0x3efe
    462c:	ebfffc37 	bl	3710 <crearBlackman>
    4630:	e1a00004 	mov	r0, r4
    4634:	e24b1038 	sub	r1, fp, #56	; 0x38
    4638:	e3a03000 	mov	r3, #0
    463c:	e50b3038 	str	r3, [fp, #-56]	; 0x38
    4640:	e50b3034 	str	r3, [fp, #-52]	; 0x34
    4644:	e50b3030 	str	r3, [fp, #-48]	; 0x30
    4648:	e50b302c 	str	r3, [fp, #-44]	; 0x2c
    464c:	e50b3028 	str	r3, [fp, #-40]	; 0x28
    4650:	ebffff4e 	bl	4390 <actualizarFiltro>
    4654:	e5940014 	ldr	r0, [r4, #20]
    4658:	e1a00080 	lsl	r0, r0, #1
    465c:	ebfffa9d 	bl	30d8 <inicializarDither>
    4660:	e24bd020 	sub	sp, fp, #32
    4664:	e8bd8ff0 	pop	{r4, r5, r6, r7, r8, r9, sl, fp, pc}

00004668 <limpiarEQ>:
    4668:	e92d4818 	push	{r3, r4, fp, lr}
    466c:	e3a01000 	mov	r1, #0
    4670:	e1a04000 	mov	r4, r0
    4674:	e5902020 	ldr	r2, [r0, #32]
    4678:	e28db00c 	add	fp, sp, #12
    467c:	e59000e0 	ldr	r0, [r0, #224]	; 0xe0
    4680:	ebfff5f4 	bl	1e58 <memset@plt>
    4684:	e5942020 	ldr	r2, [r4, #32]
    4688:	e59400e4 	ldr	r0, [r4, #228]	; 0xe4
    468c:	e3a01000 	mov	r1, #0
    4690:	e0822082 	add	r2, r2, r2, lsl #1
    4694:	e8bd4818 	pop	{r3, r4, fp, lr}
    4698:	eafff5ee 	b	1e58 <memset@plt>

0000469c <ecualizar>:
    469c:	e92d4ff0 	push	{r4, r5, r6, r7, r8, r9, sl, fp, lr}
    46a0:	e28db020 	add	fp, sp, #32
    46a4:	e24dd00c 	sub	sp, sp, #12
    46a8:	e1a04000 	mov	r4, r0
    46ac:	e50b102c 	str	r1, [fp, #-44]	; 0x2c
    46b0:	e2847024 	add	r7, r4, #36	; 0x24
    46b4:	e5903014 	ldr	r3, [r0, #20]
    46b8:	e1a00001 	mov	r0, r1
    46bc:	e5948020 	ldr	r8, [r4, #32]
    46c0:	e594601c 	ldr	r6, [r4, #28]
    46c4:	e1a03083 	lsl	r3, r3, #1
    46c8:	e59410ec 	ldr	r1, [r4, #236]	; 0xec
    46cc:	e50b3028 	str	r3, [fp, #-40]	; 0x28
    46d0:	e1a05088 	lsl	r5, r8, #1
    46d4:	e1a02003 	mov	r2, r3
    46d8:	e1a0a186 	lsl	sl, r6, #3
    46dc:	eb000366 	bl	547c <getFlotasInt16ASM>
    46e0:	e59400ec 	ldr	r0, [r4, #236]	; 0xec
    46e4:	e3a01000 	mov	r1, #0
    46e8:	e1a02005 	mov	r2, r5
    46ec:	e080000a 	add	r0, r0, sl
    46f0:	e1a09106 	lsl	r9, r6, #2
    46f4:	ebfff5d7 	bl	1e58 <memset@plt>
    46f8:	e1a02008 	mov	r2, r8
    46fc:	e59410e0 	ldr	r1, [r4, #224]	; 0xe0
    4700:	e59400e8 	ldr	r0, [r4, #232]	; 0xe8
    4704:	ebfff5d0 	bl	1e4c <memcpy@plt>
    4708:	e59400e8 	ldr	r0, [r4, #232]	; 0xe8
    470c:	e1a02008 	mov	r2, r8
    4710:	e59410ec 	ldr	r1, [r4, #236]	; 0xec
    4714:	e0800009 	add	r0, r0, r9
    4718:	ebfff5cb 	bl	1e4c <memcpy@plt>
    471c:	e59400e8 	ldr	r0, [r4, #232]	; 0xe8
    4720:	e3a01000 	mov	r1, #0
    4724:	e1a02005 	mov	r2, r5
    4728:	e080000a 	add	r0, r0, sl
    472c:	ebfff5c9 	bl	1e58 <memset@plt>
    4730:	e59410ec 	ldr	r1, [r4, #236]	; 0xec
    4734:	e1a02008 	mov	r2, r8
    4738:	e59400e0 	ldr	r0, [r4, #224]	; 0xe0
    473c:	e0811009 	add	r1, r1, r9
    4740:	e0858008 	add	r8, r5, r8
    4744:	ebfff5c0 	bl	1e4c <memcpy@plt>
    4748:	e594300c 	ldr	r3, [r4, #12]
    474c:	e59400e8 	ldr	r0, [r4, #232]	; 0xe8
    4750:	e3530001 	cmp	r3, #1
    4754:	e59410d4 	ldr	r1, [r4, #212]	; 0xd4
    4758:	e5942004 	ldr	r2, [r4, #4]
    475c:	0a00004c 	beq	4894 <ecualizar+0x1f8>
    4760:	eb00033a 	bl	5450 <multiplicarVentanasStereoASM>
    4764:	e59400ec 	ldr	r0, [r4, #236]	; 0xec
    4768:	e59410d4 	ldr	r1, [r4, #212]	; 0xd4
    476c:	e0866086 	add	r6, r6, r6, lsl #1
    4770:	e5942004 	ldr	r2, [r4, #4]
    4774:	eb000335 	bl	5450 <multiplicarVentanasStereoASM>
    4778:	e59430dc 	ldr	r3, [r4, #220]	; 0xdc
    477c:	e1a00007 	mov	r0, r7
    4780:	e59410e8 	ldr	r1, [r4, #232]	; 0xe8
    4784:	e59420d8 	ldr	r2, [r4, #216]	; 0xd8
    4788:	ebfff6b6 	bl	2268 <realFFT>
    478c:	e5942000 	ldr	r2, [r4]
    4790:	e59400d8 	ldr	r0, [r4, #216]	; 0xd8
    4794:	e59410f8 	ldr	r1, [r4, #248]	; 0xf8
    4798:	e2822001 	add	r2, r2, #1
    479c:	eb000345 	bl	54b8 <multiplicarEspectrosASM>
    47a0:	e5942000 	ldr	r2, [r4]
    47a4:	e59410f8 	ldr	r1, [r4, #248]	; 0xf8
    47a8:	e2822001 	add	r2, r2, #1
    47ac:	e59400dc 	ldr	r0, [r4, #220]	; 0xdc
    47b0:	eb000340 	bl	54b8 <multiplicarEspectrosASM>
    47b4:	e1a00007 	mov	r0, r7
    47b8:	e59410e8 	ldr	r1, [r4, #232]	; 0xe8
    47bc:	e59420d8 	ldr	r2, [r4, #216]	; 0xd8
    47c0:	e59430dc 	ldr	r3, [r4, #220]	; 0xdc
    47c4:	ebfff7b0 	bl	268c <realIFFT>
    47c8:	e59430dc 	ldr	r3, [r4, #220]	; 0xdc
    47cc:	e1a00007 	mov	r0, r7
    47d0:	e59410ec 	ldr	r1, [r4, #236]	; 0xec
    47d4:	e59420d8 	ldr	r2, [r4, #216]	; 0xd8
    47d8:	ebfff6a2 	bl	2268 <realFFT>
    47dc:	e5942000 	ldr	r2, [r4]
    47e0:	e59400d8 	ldr	r0, [r4, #216]	; 0xd8
    47e4:	e59410f8 	ldr	r1, [r4, #248]	; 0xf8
    47e8:	e2822001 	add	r2, r2, #1
    47ec:	eb000331 	bl	54b8 <multiplicarEspectrosASM>
    47f0:	e5942000 	ldr	r2, [r4]
    47f4:	e59410f8 	ldr	r1, [r4, #248]	; 0xf8
    47f8:	e2822001 	add	r2, r2, #1
    47fc:	e59400dc 	ldr	r0, [r4, #220]	; 0xdc
    4800:	eb00032c 	bl	54b8 <multiplicarEspectrosASM>
    4804:	e59430dc 	ldr	r3, [r4, #220]	; 0xdc
    4808:	e1a00007 	mov	r0, r7
    480c:	e59410ec 	ldr	r1, [r4, #236]	; 0xec
    4810:	e59420d8 	ldr	r2, [r4, #216]	; 0xd8
    4814:	ebfff79c 	bl	268c <realIFFT>
    4818:	e59410e4 	ldr	r1, [r4, #228]	; 0xe4
    481c:	e1a02008 	mov	r2, r8
    4820:	e59400f0 	ldr	r0, [r4, #240]	; 0xf0
    4824:	ebfff588 	bl	1e4c <memcpy@plt>
    4828:	e59430f0 	ldr	r3, [r4, #240]	; 0xf0
    482c:	e3a01000 	mov	r1, #0
    4830:	e1a02005 	mov	r2, r5
    4834:	e0830106 	add	r0, r3, r6, lsl #2
    4838:	ebfff586 	bl	1e58 <memset@plt>
    483c:	e5942000 	ldr	r2, [r4]
    4840:	e59400f0 	ldr	r0, [r4, #240]	; 0xf0
    4844:	e59410e8 	ldr	r1, [r4, #232]	; 0xe8
    4848:	e1a02082 	lsl	r2, r2, #1
    484c:	eb0002bb 	bl	5340 <sumarSenalesASM>
    4850:	e5942000 	ldr	r2, [r4]
    4854:	e59400f0 	ldr	r0, [r4, #240]	; 0xf0
    4858:	e59410ec 	ldr	r1, [r4, #236]	; 0xec
    485c:	e0800009 	add	r0, r0, r9
    4860:	e1a02082 	lsl	r2, r2, #1
    4864:	eb0002b5 	bl	5340 <sumarSenalesASM>
    4868:	e59410f0 	ldr	r1, [r4, #240]	; 0xf0
    486c:	e1a02008 	mov	r2, r8
    4870:	e59400e4 	ldr	r0, [r4, #228]	; 0xe4
    4874:	e081100a 	add	r1, r1, sl
    4878:	ebfff573 	bl	1e4c <memcpy@plt>
    487c:	e51b002c 	ldr	r0, [fp, #-44]	; 0x2c
    4880:	e59410f0 	ldr	r1, [r4, #240]	; 0xf0
    4884:	e51b2028 	ldr	r2, [fp, #-40]	; 0x28
    4888:	e24bd020 	sub	sp, fp, #32
    488c:	e8bd4ff0 	pop	{r4, r5, r6, r7, r8, r9, sl, fp, lr}
    4890:	ea00031d 	b	550c <getIntsInt16_ditherASM>
    4894:	eb0002cb 	bl	53c8 <multiplicarVentanasMonoASM>
    4898:	e59400ec 	ldr	r0, [r4, #236]	; 0xec
    489c:	e59410d4 	ldr	r1, [r4, #212]	; 0xd4
    48a0:	e0866086 	add	r6, r6, r6, lsl #1
    48a4:	e5942004 	ldr	r2, [r4, #4]
    48a8:	eb0002c6 	bl	53c8 <multiplicarVentanasMonoASM>
    48ac:	e1a00007 	mov	r0, r7
    48b0:	e59410e8 	ldr	r1, [r4, #232]	; 0xe8
    48b4:	e3a03000 	mov	r3, #0
    48b8:	e59420d8 	ldr	r2, [r4, #216]	; 0xd8
    48bc:	ebfff669 	bl	2268 <realFFT>
    48c0:	e5942000 	ldr	r2, [r4]
    48c4:	e59410f8 	ldr	r1, [r4, #248]	; 0xf8
    48c8:	e59400d8 	ldr	r0, [r4, #216]	; 0xd8
    48cc:	e2822001 	add	r2, r2, #1
    48d0:	eb0002f8 	bl	54b8 <multiplicarEspectrosASM>
    48d4:	e1a00007 	mov	r0, r7
    48d8:	e59410e8 	ldr	r1, [r4, #232]	; 0xe8
    48dc:	e3a03000 	mov	r3, #0
    48e0:	e59420d8 	ldr	r2, [r4, #216]	; 0xd8
    48e4:	ebfff768 	bl	268c <realIFFT>
    48e8:	e1a00007 	mov	r0, r7
    48ec:	e59410ec 	ldr	r1, [r4, #236]	; 0xec
    48f0:	e3a03000 	mov	r3, #0
    48f4:	e59420d8 	ldr	r2, [r4, #216]	; 0xd8
    48f8:	ebfff65a 	bl	2268 <realFFT>
    48fc:	e5942000 	ldr	r2, [r4]
    4900:	e59410f8 	ldr	r1, [r4, #248]	; 0xf8
    4904:	e59400d8 	ldr	r0, [r4, #216]	; 0xd8
    4908:	e2822001 	add	r2, r2, #1
    490c:	eb0002e9 	bl	54b8 <multiplicarEspectrosASM>
    4910:	e1a00007 	mov	r0, r7
    4914:	e3a03000 	mov	r3, #0
    4918:	e59410ec 	ldr	r1, [r4, #236]	; 0xec
    491c:	e59420d8 	ldr	r2, [r4, #216]	; 0xd8
    4920:	ebfff759 	bl	268c <realIFFT>
    4924:	e59410e4 	ldr	r1, [r4, #228]	; 0xe4
    4928:	e1a02008 	mov	r2, r8
    492c:	e59400f0 	ldr	r0, [r4, #240]	; 0xf0
    4930:	ebfff545 	bl	1e4c <memcpy@plt>
    4934:	e59430f0 	ldr	r3, [r4, #240]	; 0xf0
    4938:	e1a02005 	mov	r2, r5
    493c:	e3a01000 	mov	r1, #0
    4940:	e0830106 	add	r0, r3, r6, lsl #2
    4944:	ebfff543 	bl	1e58 <memset@plt>
    4948:	e59400f0 	ldr	r0, [r4, #240]	; 0xf0
    494c:	e59410e8 	ldr	r1, [r4, #232]	; 0xe8
    4950:	e5942000 	ldr	r2, [r4]
    4954:	eb000279 	bl	5340 <sumarSenalesASM>
    4958:	e59400f0 	ldr	r0, [r4, #240]	; 0xf0
    495c:	e59410ec 	ldr	r1, [r4, #236]	; 0xec
    4960:	e0800009 	add	r0, r0, r9
    4964:	e5942000 	ldr	r2, [r4]
    4968:	eb000274 	bl	5340 <sumarSenalesASM>
    496c:	eaffffbd 	b	4868 <ecualizar+0x1cc>

00004970 <ultimoCachito>:
    4970:	e92d4830 	push	{r4, r5, fp, lr}
    4974:	e1a05000 	mov	r5, r0
    4978:	e5902018 	ldr	r2, [r0, #24]
    497c:	e1a04001 	mov	r4, r1
    4980:	e28db00c 	add	fp, sp, #12
    4984:	e1a00001 	mov	r0, r1
    4988:	e3a01000 	mov	r1, #0
    498c:	e1a02082 	lsl	r2, r2, #1
    4990:	ebfff530 	bl	1e58 <memset@plt>
    4994:	e1a00005 	mov	r0, r5
    4998:	e1a01004 	mov	r1, r4
    499c:	e8bd4830 	pop	{r4, r5, fp, lr}
    49a0:	eaffff3d 	b	469c <ecualizar>

000049a4 <ecualizarYEscribirCancion>:
    49a4:	e92d4df0 	push	{r4, r5, r6, r7, r8, sl, fp, lr}
    49a8:	e1a07000 	mov	r7, r0
    49ac:	e28db01c 	add	fp, sp, #28
    49b0:	e1a06001 	mov	r6, r1
    49b4:	ebffff2b 	bl	4668 <limpiarEQ>
    49b8:	e5970014 	ldr	r0, [r7, #20]
    49bc:	e59f5154 	ldr	r5, [pc, #340]	; 4b18 <ecualizarYEscribirCancion+0x174>
    49c0:	e1a00100 	lsl	r0, r0, #2
    49c4:	ebfff508 	bl	1dec <malloc@plt>
    49c8:	e59f114c 	ldr	r1, [pc, #332]	; 4b1c <ecualizarYEscribirCancion+0x178>
    49cc:	e08f1001 	add	r1, pc, r1
    49d0:	e1a04000 	mov	r4, r0
    49d4:	e1a00006 	mov	r0, r6
    49d8:	ebfff50f 	bl	1e1c <fopen@plt>
    49dc:	e79f5005 	ldr	r5, [pc, r5]
    49e0:	e1a01006 	mov	r1, r6
    49e4:	e3a02000 	mov	r2, #0
    49e8:	e1a0a000 	mov	sl, r0
    49ec:	e1a00005 	mov	r0, r5
    49f0:	ebfff527 	bl	1e94 <sprintf@plt>
    49f4:	e59f1124 	ldr	r1, [pc, #292]	; 4b20 <ecualizarYEscribirCancion+0x17c>
    49f8:	e1a02005 	mov	r2, r5
    49fc:	e3a00006 	mov	r0, #6
    4a00:	e08f1001 	add	r1, pc, r1
    4a04:	ebfff525 	bl	1ea0 <__android_log_write@plt>
    4a08:	e59f0114 	ldr	r0, [pc, #276]	; 4b24 <ecualizarYEscribirCancion+0x180>
    4a0c:	e59f1114 	ldr	r1, [pc, #276]	; 4b28 <ecualizarYEscribirCancion+0x184>
    4a10:	e08f0000 	add	r0, pc, r0
    4a14:	e08f1001 	add	r1, pc, r1
    4a18:	ebfff4ff 	bl	1e1c <fopen@plt>
    4a1c:	e1a08000 	mov	r8, r0
    4a20:	e3a0002c 	mov	r0, #44	; 0x2c
    4a24:	ebfff4f0 	bl	1dec <malloc@plt>
    4a28:	e3a01001 	mov	r1, #1
    4a2c:	e3a0202c 	mov	r2, #44	; 0x2c
    4a30:	e1a0300a 	mov	r3, sl
    4a34:	e1a05000 	mov	r5, r0
    4a38:	ebfff4fa 	bl	1e28 <fread@plt>
    4a3c:	e1a00005 	mov	r0, r5
    4a40:	e3a01001 	mov	r1, #1
    4a44:	e3a0202c 	mov	r2, #44	; 0x2c
    4a48:	e1a03008 	mov	r3, r8
    4a4c:	ebfff516 	bl	1eac <fwrite@plt>
    4a50:	e1a00005 	mov	r0, r5
    4a54:	ebfff4ed 	bl	1e10 <free@plt>
    4a58:	e5975014 	ldr	r5, [r7, #20]
    4a5c:	e1a05085 	lsl	r5, r5, #1
    4a60:	ea000005 	b	4a7c <ecualizarYEscribirCancion+0xd8>
    4a64:	ebffff0c 	bl	469c <ecualizar>
    4a68:	e1a00004 	mov	r0, r4
    4a6c:	e3a01002 	mov	r1, #2
    4a70:	e1a02005 	mov	r2, r5
    4a74:	e1a03008 	mov	r3, r8
    4a78:	ebfff50b 	bl	1eac <fwrite@plt>
    4a7c:	e3a01002 	mov	r1, #2
    4a80:	e1a02005 	mov	r2, r5
    4a84:	e1a0300a 	mov	r3, sl
    4a88:	e1a00004 	mov	r0, r4
    4a8c:	ebfff4e5 	bl	1e28 <fread@plt>
    4a90:	e1a01004 	mov	r1, r4
    4a94:	e1a06000 	mov	r6, r0
    4a98:	e1560005 	cmp	r6, r5
    4a9c:	e1a00007 	mov	r0, r7
    4aa0:	0affffef 	beq	4a64 <ecualizarYEscribirCancion+0xc0>
    4aa4:	e5972018 	ldr	r2, [r7, #24]
    4aa8:	e0840086 	add	r0, r4, r6, lsl #1
    4aac:	e3a01000 	mov	r1, #0
    4ab0:	e0662002 	rsb	r2, r6, r2
    4ab4:	e1a02082 	lsl	r2, r2, #1
    4ab8:	ebfff4e6 	bl	1e58 <memset@plt>
    4abc:	e1a00007 	mov	r0, r7
    4ac0:	e1a01004 	mov	r1, r4
    4ac4:	ebfffef4 	bl	469c <ecualizar>
    4ac8:	e1a02005 	mov	r2, r5
    4acc:	e1a03008 	mov	r3, r8
    4ad0:	e1a00004 	mov	r0, r4
    4ad4:	e3a01002 	mov	r1, #2
    4ad8:	ebfff4f3 	bl	1eac <fwrite@plt>
    4adc:	e1a00007 	mov	r0, r7
    4ae0:	e1a01004 	mov	r1, r4
    4ae4:	ebffffa1 	bl	4970 <ultimoCachito>
    4ae8:	e3a01002 	mov	r1, #2
    4aec:	e1a02006 	mov	r2, r6
    4af0:	e1a03008 	mov	r3, r8
    4af4:	e1a00004 	mov	r0, r4
    4af8:	ebfff4eb 	bl	1eac <fwrite@plt>
    4afc:	e1a00004 	mov	r0, r4
    4b00:	ebfff4c2 	bl	1e10 <free@plt>
    4b04:	e1a0000a 	mov	r0, sl
    4b08:	ebfff4c9 	bl	1e34 <fclose@plt>
    4b0c:	e1a00008 	mov	r0, r8
    4b10:	e8bd4df0 	pop	{r4, r5, r6, r7, r8, sl, fp, lr}
    4b14:	eafff4c6 	b	1e34 <fclose@plt>
    4b18:	00004564 	andeq	r4, r0, r4, ror #10
    4b1c:	00003034 	andeq	r3, r0, r4, lsr r0
    4b20:	00003004 	andeq	r3, r0, r4
    4b24:	00003028 	andeq	r3, r0, r8, lsr #32
    4b28:	00003044 	andeq	r3, r0, r4, asr #32

00004b2c <destruirEQ>:
    4b2c:	e92d4818 	push	{r3, r4, fp, lr}
    4b30:	e1a04000 	mov	r4, r0
    4b34:	e28db00c 	add	fp, sp, #12
    4b38:	e59000d4 	ldr	r0, [r0, #212]	; 0xd4
    4b3c:	ebfff4b3 	bl	1e10 <free@plt>
    4b40:	e59400d8 	ldr	r0, [r4, #216]	; 0xd8
    4b44:	ebfff4b1 	bl	1e10 <free@plt>
    4b48:	e59400dc 	ldr	r0, [r4, #220]	; 0xdc
    4b4c:	ebfff4af 	bl	1e10 <free@plt>
    4b50:	e59400f8 	ldr	r0, [r4, #248]	; 0xf8
    4b54:	ebfff4ad 	bl	1e10 <free@plt>
    4b58:	e59400e0 	ldr	r0, [r4, #224]	; 0xe0
    4b5c:	ebfff4ab 	bl	1e10 <free@plt>
    4b60:	e59400e4 	ldr	r0, [r4, #228]	; 0xe4
    4b64:	ebfff4a9 	bl	1e10 <free@plt>
    4b68:	e59400e8 	ldr	r0, [r4, #232]	; 0xe8
    4b6c:	ebfff4a7 	bl	1e10 <free@plt>
    4b70:	e59400ec 	ldr	r0, [r4, #236]	; 0xec
    4b74:	ebfff4a5 	bl	1e10 <free@plt>
    4b78:	e59400f0 	ldr	r0, [r4, #240]	; 0xf0
    4b7c:	ebfff4a3 	bl	1e10 <free@plt>
    4b80:	e5940104 	ldr	r0, [r4, #260]	; 0x104
    4b84:	ebfff4a1 	bl	1e10 <free@plt>
    4b88:	e5940108 	ldr	r0, [r4, #264]	; 0x108
    4b8c:	ebfff49f 	bl	1e10 <free@plt>
    4b90:	e594010c 	ldr	r0, [r4, #268]	; 0x10c
    4b94:	ebfff49d 	bl	1e10 <free@plt>
    4b98:	e5940110 	ldr	r0, [r4, #272]	; 0x110
    4b9c:	ebfff49b 	bl	1e10 <free@plt>
    4ba0:	e2840024 	add	r0, r4, #36	; 0x24
    4ba4:	ebfff933 	bl	3078 <destruirFFT>
    4ba8:	e2840050 	add	r0, r4, #80	; 0x50
    4bac:	ebfff931 	bl	3078 <destruirFFT>
    4bb0:	e284007c 	add	r0, r4, #124	; 0x7c
    4bb4:	ebfff92f 	bl	3078 <destruirFFT>
    4bb8:	e28400a8 	add	r0, r4, #168	; 0xa8
    4bbc:	e8bd4818 	pop	{r3, r4, fp, lr}
    4bc0:	eafff92c 	b	3078 <destruirFFT>
    4bc4:	00000000 	andeq	r0, r0, r0

00004bc8 <inicializarAnalizador>:
    4bc8:	e92d48f0 	push	{r4, r5, r6, r7, fp, lr}
    4bcc:	e28db014 	add	fp, sp, #20
    4bd0:	e0060193 	mul	r6, r3, r1
    4bd4:	e1a04000 	mov	r4, r0
    4bd8:	e5801004 	str	r1, [r0, #4]
    4bdc:	e3a05000 	mov	r5, #0
    4be0:	e5802010 	str	r2, [r0, #16]
    4be4:	e1a02081 	lsl	r2, r1, #1
    4be8:	e5843008 	str	r3, [r4, #8]
    4bec:	e1a00101 	lsl	r0, r1, #2
    4bf0:	e59b3004 	ldr	r3, [fp, #4]
    4bf4:	e5842000 	str	r2, [r4]
    4bf8:	e584600c 	str	r6, [r4, #12]
    4bfc:	e5843014 	str	r3, [r4, #20]
    4c00:	e5845018 	str	r5, [r4, #24]
    4c04:	ebfff478 	bl	1dec <malloc@plt>
    4c08:	e5840048 	str	r0, [r4, #72]	; 0x48
    4c0c:	e1a00186 	lsl	r0, r6, #3
    4c10:	ebfff475 	bl	1dec <malloc@plt>
    4c14:	e1a02106 	lsl	r2, r6, #2
    4c18:	e1a01005 	mov	r1, r5
    4c1c:	e584004c 	str	r0, [r4, #76]	; 0x4c
    4c20:	e0800002 	add	r0, r0, r2
    4c24:	ebfff48b 	bl	1e58 <memset@plt>
    4c28:	e5946000 	ldr	r6, [r4]
    4c2c:	e2866001 	add	r6, r6, #1
    4c30:	e1a06186 	lsl	r6, r6, #3
    4c34:	e1a00006 	mov	r0, r6
    4c38:	ebfff46b 	bl	1dec <malloc@plt>
    4c3c:	e5840050 	str	r0, [r4, #80]	; 0x50
    4c40:	e1a00006 	mov	r0, r6
    4c44:	ebfff468 	bl	1dec <malloc@plt>
    4c48:	e5946014 	ldr	r6, [r4, #20]
    4c4c:	e1a06106 	lsl	r6, r6, #2
    4c50:	e5840054 	str	r0, [r4, #84]	; 0x54
    4c54:	e1a00006 	mov	r0, r6
    4c58:	ebfff463 	bl	1dec <malloc@plt>
    4c5c:	e1a01005 	mov	r1, r5
    4c60:	e1a02006 	mov	r2, r6
    4c64:	e5840058 	str	r0, [r4, #88]	; 0x58
    4c68:	ebfff47a 	bl	1e58 <memset@plt>
    4c6c:	e284001c 	add	r0, r4, #28
    4c70:	e5941000 	ldr	r1, [r4]
    4c74:	e5942008 	ldr	r2, [r4, #8]
    4c78:	ebfff845 	bl	2d94 <inicializarFFT>
    4c7c:	e5940048 	ldr	r0, [r4, #72]	; 0x48
    4c80:	e5941004 	ldr	r1, [r4, #4]
    4c84:	e3032d71 	movw	r2, #15729	; 0x3d71
    4c88:	e308351f 	movw	r3, #34079	; 0x851f
    4c8c:	e3432f0a 	movt	r2, #16138	; 0x3f0a
    4c90:	e3433eeb 	movt	r3, #16107	; 0x3eeb
    4c94:	e8bd48f0 	pop	{r4, r5, r6, r7, fp, lr}
    4c98:	eafffa77 	b	367c <crearHamming>

00004c9c <analizar>:
    4c9c:	e92d4ff0 	push	{r4, r5, r6, r7, r8, r9, sl, fp, lr}
    4ca0:	ed2d8b0e 	vpush	{d8-d14}
    4ca4:	e28db058 	add	fp, sp, #88	; 0x58
    4ca8:	e24dd01c 	sub	sp, sp, #28
    4cac:	e1a04000 	mov	r4, r0
    4cb0:	e1a00001 	mov	r0, r1
    4cb4:	ed94ea04 	vldr	s28, [r4, #16]
    4cb8:	e5943000 	ldr	r3, [r4]
    4cbc:	e594200c 	ldr	r2, [r4, #12]
    4cc0:	e594104c 	ldr	r1, [r4, #76]	; 0x4c
    4cc4:	e50b306c 	str	r3, [fp, #-108]	; 0x6c
    4cc8:	e5943058 	ldr	r3, [r4, #88]	; 0x58
    4ccc:	e5946004 	ldr	r6, [r4, #4]
    4cd0:	e5945014 	ldr	r5, [r4, #20]
    4cd4:	e50b3070 	str	r3, [fp, #-112]	; 0x70
    4cd8:	eb0001e7 	bl	547c <getFlotasInt16ASM>
    4cdc:	e5943008 	ldr	r3, [r4, #8]
    4ce0:	e2455001 	sub	r5, r5, #1
    4ce4:	e594004c 	ldr	r0, [r4, #76]	; 0x4c
    4ce8:	e1a02006 	mov	r2, r6
    4cec:	e3530001 	cmp	r3, #1
    4cf0:	e5941048 	ldr	r1, [r4, #72]	; 0x48
    4cf4:	e50b5068 	str	r5, [fp, #-104]	; 0x68
    4cf8:	0a0000a8 	beq	4fa0 <analizar+0x304>
    4cfc:	eb0001d3 	bl	5450 <multiplicarVentanasStereoASM>
    4d00:	e284104c 	add	r1, r4, #76	; 0x4c
    4d04:	e284001c 	add	r0, r4, #28
    4d08:	e891000e 	ldm	r1, {r1, r2, r3}
    4d0c:	ebfff555 	bl	2268 <realFFT>
    4d10:	e51b5068 	ldr	r5, [fp, #-104]	; 0x68
    4d14:	e3550000 	cmp	r5, #0
    4d18:	da000128 	ble	51c0 <analizar+0x524>
    4d1c:	e51b306c 	ldr	r3, [fp, #-108]	; 0x6c
    4d20:	eef8aace 	vcvt.f32.s32	s21, s28
    4d24:	ee073a10 	vmov	s14, r3
    4d28:	e51ba070 	ldr	sl, [fp, #-112]	; 0x70
    4d2c:	ed9fcbbd 	vldr	d12, [pc, #756]	; 5028 <analizar+0x38c>
    4d30:	e3a06000 	mov	r6, #0
    4d34:	e0838fa3 	add	r8, r3, r3, lsr #31
    4d38:	ed9fbbbc 	vldr	d11, [pc, #752]	; 5030 <analizar+0x394>
    4d3c:	e1a09006 	mov	r9, r6
    4d40:	e1a05004 	mov	r5, r4
    4d44:	e1a080c8 	asr	r8, r8, #1
    4d48:	ed9f9aba 	vldr	s18, [pc, #744]	; 5038 <analizar+0x39c>
    4d4c:	eeb8aac7 	vcvt.f32.s32	s20, s14
    4d50:	ee6a7a89 	vmul.f32	s15, s21, s18
    4d54:	e2899001 	add	r9, r9, #1
    4d58:	ee079a10 	vmov	s14, r9
    4d5c:	e1a04186 	lsl	r4, r6, #3
    4d60:	eddf9ab4 	vldr	s19, [pc, #720]	; 5038 <analizar+0x39c>
    4d64:	e3a07000 	mov	r7, #0
    4d68:	eef80bc7 	vcvt.f64.s32	d16, s14
    4d6c:	ee878a8a 	vdiv.f32	s16, s15, s20
    4d70:	ed4b0b19 	vstr	d16, [fp, #-100]	; 0xffffff9c
    4d74:	ec532b30 	vmov	r2, r3, d16
    4d78:	eeb6db00 	vmov.f64	d13, #96	; 0x60
    4d7c:	ea000026 	b	4e1c <analizar+0x180>
    4d80:	e1560008 	cmp	r6, r8
    4d84:	aa00002f 	bge	4e48 <analizar+0x1ac>
    4d88:	e5953050 	ldr	r3, [r5, #80]	; 0x50
    4d8c:	e2866001 	add	r6, r6, #1
    4d90:	e2877001 	add	r7, r7, #1
    4d94:	e0833004 	add	r3, r3, r4
    4d98:	edd37a01 	vldr	s15, [r3, #4]
    4d9c:	eef70ae7 	vcvt.f64.f32	d16, s15
    4da0:	edd37a00 	vldr	s15, [r3]
    4da4:	ee600ba0 	vmul.f64	d16, d16, d16
    4da8:	eef71ae7 	vcvt.f64.f32	d17, s15
    4dac:	ee410ba1 	vmla.f64	d16, d17, d17
    4db0:	eeb18be0 	vsqrt.f64	d8, d16
    4db4:	eeb48b48 	vcmp.f64	d8, d8
    4db8:	eef1fa10 	vmrs	APSR_nzcv, fpscr
    4dbc:	1a000106 	bne	51dc <analizar+0x540>
    4dc0:	e5953054 	ldr	r3, [r5, #84]	; 0x54
    4dc4:	e0833004 	add	r3, r3, r4
    4dc8:	edd37a01 	vldr	s15, [r3, #4]
    4dcc:	eef70ae7 	vcvt.f64.f32	d16, s15
    4dd0:	edd37a00 	vldr	s15, [r3]
    4dd4:	e2844008 	add	r4, r4, #8
    4dd8:	ee600ba0 	vmul.f64	d16, d16, d16
    4ddc:	eef71ae7 	vcvt.f64.f32	d17, s15
    4de0:	ee410ba1 	vmla.f64	d16, d17, d17
    4de4:	eef11be0 	vsqrt.f64	d17, d16
    4de8:	eef41b61 	vcmp.f64	d17, d17
    4dec:	eef1fa10 	vmrs	APSR_nzcv, fpscr
    4df0:	1a0000f5 	bne	51cc <analizar+0x530>
    4df4:	ee610b8b 	vmul.f64	d16, d17, d11
    4df8:	ee076a90 	vmov	s15, r6
    4dfc:	e14b26d4 	ldrd	r2, [fp, #-100]	; 0xffffff9c
    4e00:	ee480b0b 	vmla.f64	d16, d8, d11
    4e04:	eeb89ae7 	vcvt.f32.s32	s18, s15
    4e08:	ee6a7a89 	vmul.f32	s15, s21, s18
    4e0c:	eef71ae9 	vcvt.f64.f32	d17, s19
    4e10:	ee878a8a 	vdiv.f32	s16, s15, s20
    4e14:	ee401b8d 	vmla.f64	d17, d16, d13
    4e18:	eef79be1 	vcvt.f32.f64	s19, d17
    4e1c:	e3050c29 	movw	r0, #23593	; 0x5c29
    4e20:	e30218f5 	movw	r1, #10485	; 0x28f5
    4e24:	e34c028f 	movt	r0, #49807	; 0xc28f
    4e28:	e3431ff4 	movt	r1, #16372	; 0x3ff4
    4e2c:	ebfff40f 	bl	1e70 <pow@plt>
    4e30:	eeb78ac8 	vcvt.f64.f32	d8, s16
    4e34:	ec410b31 	vmov	d17, r0, r1
    4e38:	ee610b8c 	vmul.f64	d16, d17, d12
    4e3c:	eeb48be0 	vcmpe.f64	d8, d16
    4e40:	eef1fa10 	vmrs	APSR_nzcv, fpscr
    4e44:	4affffcd 	bmi	4d80 <analizar+0xe4>
    4e48:	ee077a10 	vmov	s14, r7
    4e4c:	eef87ac7 	vcvt.f32.s32	s15, s14
    4e50:	ed9a7a00 	vldr	s14, [sl]
    4e54:	e51b1068 	ldr	r1, [fp, #-104]	; 0x68
    4e58:	e1590001 	cmp	r9, r1
    4e5c:	eec97aa7 	vdiv.f32	s15, s19, s15
    4e60:	ee777a27 	vadd.f32	s15, s14, s15
    4e64:	ecea7a01 	vstmia	sl!, {s15}
    4e68:	baffffb8 	blt	4d50 <analizar+0xb4>
    4e6c:	e1a04005 	mov	r4, r5
    4e70:	eeb6db00 	vmov.f64	d13, #96	; 0x60
    4e74:	eef80bce 	vcvt.f64.s32	d16, s28
    4e78:	ee20cb8d 	vmul.f64	d12, d16, d13
    4e7c:	eeb48bcc 	vcmpe.f64	d8, d12
    4e80:	eef1fa10 	vmrs	APSR_nzcv, fpscr
    4e84:	5a0000ca 	bpl	51b4 <analizar+0x518>
    4e88:	e51b206c 	ldr	r2, [fp, #-108]	; 0x6c
    4e8c:	e0828fa2 	add	r8, r2, r2, lsr #31
    4e90:	e1a080c8 	asr	r8, r8, #1
    4e94:	e1560008 	cmp	r6, r8
    4e98:	aa0000c5 	bge	51b4 <analizar+0x518>
    4e9c:	ee072a10 	vmov	s14, r2
    4ea0:	eef8aace 	vcvt.f32.s32	s21, s28
    4ea4:	e1a05186 	lsl	r5, r6, #3
    4ea8:	e3a07000 	mov	r7, #0
    4eac:	ed9f8a61 	vldr	s16, [pc, #388]	; 5038 <analizar+0x39c>
    4eb0:	ed9fbb5e 	vldr	d11, [pc, #376]	; 5030 <analizar+0x394>
    4eb4:	eeb8aac7 	vcvt.f32.s32	s20, s14
    4eb8:	ea000001 	b	4ec4 <analizar+0x228>
    4ebc:	e1560008 	cmp	r6, r8
    4ec0:	0a000027 	beq	4f64 <analizar+0x2c8>
    4ec4:	e5943050 	ldr	r3, [r4, #80]	; 0x50
    4ec8:	e2866001 	add	r6, r6, #1
    4ecc:	e2877001 	add	r7, r7, #1
    4ed0:	e0833005 	add	r3, r3, r5
    4ed4:	edd37a01 	vldr	s15, [r3, #4]
    4ed8:	eef70ae7 	vcvt.f64.f32	d16, s15
    4edc:	edd37a00 	vldr	s15, [r3]
    4ee0:	ee600ba0 	vmul.f64	d16, d16, d16
    4ee4:	eef71ae7 	vcvt.f64.f32	d17, s15
    4ee8:	ee410ba1 	vmla.f64	d16, d17, d17
    4eec:	eeb19be0 	vsqrt.f64	d9, d16
    4ef0:	eeb49b49 	vcmp.f64	d9, d9
    4ef4:	eef1fa10 	vmrs	APSR_nzcv, fpscr
    4ef8:	1a0000c6 	bne	5218 <analizar+0x57c>
    4efc:	e5943054 	ldr	r3, [r4, #84]	; 0x54
    4f00:	e0833005 	add	r3, r3, r5
    4f04:	edd37a01 	vldr	s15, [r3, #4]
    4f08:	eef70ae7 	vcvt.f64.f32	d16, s15
    4f0c:	edd37a00 	vldr	s15, [r3]
    4f10:	e2855008 	add	r5, r5, #8
    4f14:	ee600ba0 	vmul.f64	d16, d16, d16
    4f18:	eef71ae7 	vcvt.f64.f32	d17, s15
    4f1c:	ee410ba1 	vmla.f64	d16, d17, d17
    4f20:	eef11be0 	vsqrt.f64	d17, d16
    4f24:	eef41b61 	vcmp.f64	d17, d17
    4f28:	eef1fa10 	vmrs	APSR_nzcv, fpscr
    4f2c:	1a0000bd 	bne	5228 <analizar+0x58c>
    4f30:	ee610b8b 	vmul.f64	d16, d17, d11
    4f34:	ee076a10 	vmov	s14, r6
    4f38:	eef87ac7 	vcvt.f32.s32	s15, s14
    4f3c:	ee677aaa 	vmul.f32	s15, s15, s21
    4f40:	ee490b0b 	vmla.f64	d16, d9, d11
    4f44:	eec77a8a 	vdiv.f32	s15, s15, s20
    4f48:	eeb78ac8 	vcvt.f64.f32	d8, s16
    4f4c:	ee008b8d 	vmla.f64	d8, d16, d13
    4f50:	eef70ae7 	vcvt.f64.f32	d16, s15
    4f54:	eef40bcc 	vcmpe.f64	d16, d12
    4f58:	eeb78bc8 	vcvt.f32.f64	s16, d8
    4f5c:	eef1fa10 	vmrs	APSR_nzcv, fpscr
    4f60:	4affffd5 	bmi	4ebc <analizar+0x220>
    4f64:	ee077a10 	vmov	s14, r7
    4f68:	eef87ac7 	vcvt.f32.s32	s15, s14
    4f6c:	eec87a27 	vdiv.f32	s15, s16, s15
    4f70:	e51b2068 	ldr	r2, [fp, #-104]	; 0x68
    4f74:	e51b1070 	ldr	r1, [fp, #-112]	; 0x70
    4f78:	e0813102 	add	r3, r1, r2, lsl #2
    4f7c:	ed937a00 	vldr	s14, [r3]
    4f80:	ee777a27 	vadd.f32	s15, s14, s15
    4f84:	edc37a00 	vstr	s15, [r3]
    4f88:	e5943018 	ldr	r3, [r4, #24]
    4f8c:	e2833001 	add	r3, r3, #1
    4f90:	e5843018 	str	r3, [r4, #24]
    4f94:	e24bd058 	sub	sp, fp, #88	; 0x58
    4f98:	ecbd8b0e 	vpop	{d8-d14}
    4f9c:	e8bd8ff0 	pop	{r4, r5, r6, r7, r8, r9, sl, fp, pc}
    4fa0:	eb000108 	bl	53c8 <multiplicarVentanasMonoASM>
    4fa4:	e284001c 	add	r0, r4, #28
    4fa8:	e594104c 	ldr	r1, [r4, #76]	; 0x4c
    4fac:	e3a03000 	mov	r3, #0
    4fb0:	e5942050 	ldr	r2, [r4, #80]	; 0x50
    4fb4:	ebfff4ab 	bl	2268 <realFFT>
    4fb8:	e51b5068 	ldr	r5, [fp, #-104]	; 0x68
    4fbc:	e3550000 	cmp	r5, #0
    4fc0:	da000089 	ble	51ec <analizar+0x550>
    4fc4:	e51b106c 	ldr	r1, [fp, #-108]	; 0x6c
    4fc8:	eef8aace 	vcvt.f32.s32	s21, s28
    4fcc:	ee071a10 	vmov	s14, r1
    4fd0:	e51ba070 	ldr	sl, [fp, #-112]	; 0x70
    4fd4:	ed9fbb13 	vldr	d11, [pc, #76]	; 5028 <analizar+0x38c>
    4fd8:	e3a06000 	mov	r6, #0
    4fdc:	e0818fa1 	add	r8, r1, r1, lsr #31
    4fe0:	ed9fcb12 	vldr	d12, [pc, #72]	; 5030 <analizar+0x394>
    4fe4:	e1a09006 	mov	r9, r6
    4fe8:	e1a07004 	mov	r7, r4
    4fec:	e1a080c8 	asr	r8, r8, #1
    4ff0:	ed9f9a10 	vldr	s18, [pc, #64]	; 5038 <analizar+0x39c>
    4ff4:	eeb8aac7 	vcvt.f32.s32	s20, s14
    4ff8:	ee697a2a 	vmul.f32	s15, s18, s21
    4ffc:	e2899001 	add	r9, r9, #1
    5000:	ee079a10 	vmov	s14, r9
    5004:	e1a04186 	lsl	r4, r6, #3
    5008:	eddf9a0a 	vldr	s19, [pc, #40]	; 5038 <analizar+0x39c>
    500c:	e3a05000 	mov	r5, #0
    5010:	eef80bc7 	vcvt.f64.s32	d16, s14
    5014:	ee878a8a 	vdiv.f32	s16, s15, s20
    5018:	ed4b0b19 	vstr	d16, [fp, #-100]	; 0xffffff9c
    501c:	ec532b30 	vmov	r2, r3, d16
    5020:	ea00001e 	b	50a0 <analizar+0x404>
    5024:	e320f000 	nop	{0}
    5028:	00000000 	andeq	r0, r0, r0
    502c:	40400000 	submi	r0, r0, r0
    5030:	00000000 	andeq	r0, r0, r0
    5034:	3fa00000 	svccc	0x00a00000
    5038:	00000000 	andeq	r0, r0, r0
    503c:	e1560008 	cmp	r6, r8
    5040:	aa000021 	bge	50cc <analizar+0x430>
    5044:	e5973050 	ldr	r3, [r7, #80]	; 0x50
    5048:	e2866001 	add	r6, r6, #1
    504c:	e2855001 	add	r5, r5, #1
    5050:	e0833004 	add	r3, r3, r4
    5054:	edd37a01 	vldr	s15, [r3, #4]
    5058:	eef71ae7 	vcvt.f64.f32	d17, s15
    505c:	edd37a00 	vldr	s15, [r3]
    5060:	e2844008 	add	r4, r4, #8
    5064:	ee611ba1 	vmul.f64	d17, d17, d17
    5068:	eef70ae7 	vcvt.f64.f32	d16, s15
    506c:	ee401ba0 	vmla.f64	d17, d16, d16
    5070:	eef10be1 	vsqrt.f64	d16, d17
    5074:	eef40b60 	vcmp.f64	d16, d16
    5078:	eef1fa10 	vmrs	APSR_nzcv, fpscr
    507c:	1a00005d 	bne	51f8 <analizar+0x55c>
    5080:	ee076a90 	vmov	s15, r6
    5084:	eeb89ae7 	vcvt.f32.s32	s18, s15
    5088:	e14b26d4 	ldrd	r2, [fp, #-100]	; 0xffffff9c
    508c:	ee697a2a 	vmul.f32	s15, s18, s21
    5090:	eef71ae9 	vcvt.f64.f32	d17, s19
    5094:	ee878a8a 	vdiv.f32	s16, s15, s20
    5098:	ee401b8c 	vmla.f64	d17, d16, d12
    509c:	eef79be1 	vcvt.f32.f64	s19, d17
    50a0:	e3050c29 	movw	r0, #23593	; 0x5c29
    50a4:	e30218f5 	movw	r1, #10485	; 0x28f5
    50a8:	e34c028f 	movt	r0, #49807	; 0xc28f
    50ac:	e3431ff4 	movt	r1, #16372	; 0x3ff4
    50b0:	ebfff36e 	bl	1e70 <pow@plt>
    50b4:	eeb78ac8 	vcvt.f64.f32	d8, s16
    50b8:	ec410b31 	vmov	d17, r0, r1
    50bc:	ee610b8b 	vmul.f64	d16, d17, d11
    50c0:	eeb48be0 	vcmpe.f64	d8, d16
    50c4:	eef1fa10 	vmrs	APSR_nzcv, fpscr
    50c8:	4affffdb 	bmi	503c <analizar+0x3a0>
    50cc:	ee075a10 	vmov	s14, r5
    50d0:	eef87ac7 	vcvt.f32.s32	s15, s14
    50d4:	ed9a7a00 	vldr	s14, [sl]
    50d8:	e51b1068 	ldr	r1, [fp, #-104]	; 0x68
    50dc:	e1510009 	cmp	r1, r9
    50e0:	eec97aa7 	vdiv.f32	s15, s19, s15
    50e4:	ee777a27 	vadd.f32	s15, s14, s15
    50e8:	ecea7a01 	vstmia	sl!, {s15}
    50ec:	caffffc1 	bgt	4ff8 <analizar+0x35c>
    50f0:	e1a04007 	mov	r4, r7
    50f4:	eef60b00 	vmov.f64	d16, #96	; 0x60
    50f8:	eef81bce 	vcvt.f64.s32	d17, s28
    50fc:	ee219ba0 	vmul.f64	d9, d17, d16
    5100:	eeb48bc9 	vcmpe.f64	d8, d9
    5104:	eef1fa10 	vmrs	APSR_nzcv, fpscr
    5108:	5a000029 	bpl	51b4 <analizar+0x518>
    510c:	e51b206c 	ldr	r2, [fp, #-108]	; 0x6c
    5110:	e0828fa2 	add	r8, r2, r2, lsr #31
    5114:	e1a080c8 	asr	r8, r8, #1
    5118:	e1560008 	cmp	r6, r8
    511c:	aa000024 	bge	51b4 <analizar+0x518>
    5120:	ee072a10 	vmov	s14, r2
    5124:	eef8aace 	vcvt.f32.s32	s21, s28
    5128:	e1a05186 	lsl	r5, r6, #3
    512c:	e3a07000 	mov	r7, #0
    5130:	ed1f8a40 	vldr	s16, [pc, #-256]	; 5038 <analizar+0x39c>
    5134:	ed9fbb3f 	vldr	d11, [pc, #252]	; 5238 <analizar+0x59c>
    5138:	eeb8aac7 	vcvt.f32.s32	s20, s14
    513c:	ea000001 	b	5148 <analizar+0x4ac>
    5140:	e1560008 	cmp	r6, r8
    5144:	0affff86 	beq	4f64 <analizar+0x2c8>
    5148:	e5943050 	ldr	r3, [r4, #80]	; 0x50
    514c:	e2866001 	add	r6, r6, #1
    5150:	e2877001 	add	r7, r7, #1
    5154:	e0833005 	add	r3, r3, r5
    5158:	edd37a01 	vldr	s15, [r3, #4]
    515c:	eef71ae7 	vcvt.f64.f32	d17, s15
    5160:	edd37a00 	vldr	s15, [r3]
    5164:	e2855008 	add	r5, r5, #8
    5168:	ee611ba1 	vmul.f64	d17, d17, d17
    516c:	eef70ae7 	vcvt.f64.f32	d16, s15
    5170:	ee401ba0 	vmla.f64	d17, d16, d16
    5174:	eef10be1 	vsqrt.f64	d16, d17
    5178:	eef40b60 	vcmp.f64	d16, d16
    517c:	eef1fa10 	vmrs	APSR_nzcv, fpscr
    5180:	1a000020 	bne	5208 <analizar+0x56c>
    5184:	ee076a10 	vmov	s14, r6
    5188:	eef87ac7 	vcvt.f32.s32	s15, s14
    518c:	ee677aaa 	vmul.f32	s15, s15, s21
    5190:	eec77a8a 	vdiv.f32	s15, s15, s20
    5194:	eeb78ac8 	vcvt.f64.f32	d8, s16
    5198:	ee008b8b 	vmla.f64	d8, d16, d11
    519c:	eef70ae7 	vcvt.f64.f32	d16, s15
    51a0:	eef40bc9 	vcmpe.f64	d16, d9
    51a4:	eeb78bc8 	vcvt.f32.f64	s16, d8
    51a8:	eef1fa10 	vmrs	APSR_nzcv, fpscr
    51ac:	4affffe3 	bmi	5140 <analizar+0x4a4>
    51b0:	eaffff6b 	b	4f64 <analizar+0x2c8>
    51b4:	eddf7a23 	vldr	s15, [pc, #140]	; 5248 <analizar+0x5ac>
    51b8:	eeb08a67 	vmov.f32	s16, s15
    51bc:	eaffff6a 	b	4f6c <analizar+0x2d0>
    51c0:	e3a06000 	mov	r6, #0
    51c4:	ed9f8b1d 	vldr	d8, [pc, #116]	; 5240 <analizar+0x5a4>
    51c8:	eaffff28 	b	4e70 <analizar+0x1d4>
    51cc:	ec510b30 	vmov	r0, r1, d16
    51d0:	ebfff323 	bl	1e64 <sqrt@plt>
    51d4:	ec410b31 	vmov	d17, r0, r1
    51d8:	eaffff05 	b	4df4 <analizar+0x158>
    51dc:	ec510b30 	vmov	r0, r1, d16
    51e0:	ebfff31f 	bl	1e64 <sqrt@plt>
    51e4:	ec410b18 	vmov	d8, r0, r1
    51e8:	eafffef4 	b	4dc0 <analizar+0x124>
    51ec:	e3a06000 	mov	r6, #0
    51f0:	ed9f8b12 	vldr	d8, [pc, #72]	; 5240 <analizar+0x5a4>
    51f4:	eaffffbe 	b	50f4 <analizar+0x458>
    51f8:	ec510b31 	vmov	r0, r1, d17
    51fc:	ebfff318 	bl	1e64 <sqrt@plt>
    5200:	ec410b30 	vmov	d16, r0, r1
    5204:	eaffff9d 	b	5080 <analizar+0x3e4>
    5208:	ec510b31 	vmov	r0, r1, d17
    520c:	ebfff314 	bl	1e64 <sqrt@plt>
    5210:	ec410b30 	vmov	d16, r0, r1
    5214:	eaffffda 	b	5184 <analizar+0x4e8>
    5218:	ec510b30 	vmov	r0, r1, d16
    521c:	ebfff310 	bl	1e64 <sqrt@plt>
    5220:	ec410b19 	vmov	d9, r0, r1
    5224:	eaffff34 	b	4efc <analizar+0x260>
    5228:	ec510b30 	vmov	r0, r1, d16
    522c:	ebfff30c 	bl	1e64 <sqrt@plt>
    5230:	ec410b31 	vmov	d17, r0, r1
    5234:	eaffff3d 	b	4f30 <analizar+0x294>
    5238:	00000000 	andeq	r0, r0, r0
    523c:	3fa00000 	svccc	0x00a00000
	...

0000524c <dameAnalisis>:
    524c:	e92d49f8 	push	{r3, r4, r5, r6, r7, r8, fp, lr}
    5250:	ed2d8b04 	vpush	{d8-d9}
    5254:	e1a04000 	mov	r4, r0
    5258:	e5908014 	ldr	r8, [r0, #20]
    525c:	e28db02c 	add	fp, sp, #44	; 0x2c
    5260:	e5903018 	ldr	r3, [r0, #24]
    5264:	e3580000 	cmp	r8, #0
    5268:	e5900058 	ldr	r0, [r0, #88]	; 0x58
    526c:	da000012 	ble	52bc <dameAnalisis+0x70>
    5270:	eeb39b04 	vmov.f64	d9, #52	; 0x34
    5274:	ee073a90 	vmov	s15, r3
    5278:	e1a07000 	mov	r7, r0
    527c:	e1a06001 	mov	r6, r1
    5280:	e3a05000 	mov	r5, #0
    5284:	eeb88ae7 	vcvt.f32.s32	s16, s15
    5288:	ecf77a01 	vldmia	r7!, {s15}
    528c:	eec77a88 	vdiv.f32	s15, s15, s16
    5290:	e2855001 	add	r5, r5, #1
    5294:	eef70ae7 	vcvt.f64.f32	d16, s15
    5298:	ec510b30 	vmov	r0, r1, d16
    529c:	ebfff2f6 	bl	1e7c <log10@plt>
    52a0:	e1550008 	cmp	r5, r8
    52a4:	ec410b31 	vmov	d17, r0, r1
    52a8:	ee610b89 	vmul.f64	d16, d17, d9
    52ac:	eef77be0 	vcvt.f32.f64	s15, d16
    52b0:	ece67a01 	vstmia	r6!, {s15}
    52b4:	1afffff3 	bne	5288 <dameAnalisis+0x3c>
    52b8:	e5940058 	ldr	r0, [r4, #88]	; 0x58
    52bc:	e3a01000 	mov	r1, #0
    52c0:	e1a02108 	lsl	r2, r8, #2
    52c4:	ebfff2e3 	bl	1e58 <memset@plt>
    52c8:	e3a03000 	mov	r3, #0
    52cc:	e5843018 	str	r3, [r4, #24]
    52d0:	e24bd02c 	sub	sp, fp, #44	; 0x2c
    52d4:	ecbd8b04 	vpop	{d8-d9}
    52d8:	e8bd89f8 	pop	{r3, r4, r5, r6, r7, r8, fp, pc}

000052dc <limpiarAN>:
    52dc:	e52db004 	push	{fp}		; (str fp, [sp, #-4]!)
    52e0:	e3a01000 	mov	r1, #0
    52e4:	e5902014 	ldr	r2, [r0, #20]
    52e8:	e28db000 	add	fp, sp, #0
    52ec:	e5900058 	ldr	r0, [r0, #88]	; 0x58
    52f0:	e1a02102 	lsl	r2, r2, #2
    52f4:	e28bd000 	add	sp, fp, #0
    52f8:	e8bd0800 	ldmfd	sp!, {fp}
    52fc:	eafff2d5 	b	1e58 <memset@plt>

00005300 <destruirAnalizador>:
    5300:	e92d4818 	push	{r3, r4, fp, lr}
    5304:	e1a04000 	mov	r4, r0
    5308:	e28db00c 	add	fp, sp, #12
    530c:	e5900048 	ldr	r0, [r0, #72]	; 0x48
    5310:	ebfff2be 	bl	1e10 <free@plt>
    5314:	e594004c 	ldr	r0, [r4, #76]	; 0x4c
    5318:	ebfff2bc 	bl	1e10 <free@plt>
    531c:	e5940050 	ldr	r0, [r4, #80]	; 0x50
    5320:	ebfff2ba 	bl	1e10 <free@plt>
    5324:	e5940054 	ldr	r0, [r4, #84]	; 0x54
    5328:	ebfff2b8 	bl	1e10 <free@plt>
    532c:	e5940058 	ldr	r0, [r4, #88]	; 0x58
    5330:	ebfff2b6 	bl	1e10 <free@plt>
    5334:	e284001c 	add	r0, r4, #28
    5338:	e8bd4818 	pop	{r3, r4, fp, lr}
    533c:	eafff74d 	b	3078 <destruirFFT>

00005340 <sumarSenalesASM>:
    5340:	e92d5808 	push	{r3, fp, ip, lr}
    5344:	e1a03000 	mov	r3, r0
    5348:	e2522010 	subs	r2, r2, #16
    534c:	f421428d 	vld1.32	{d4-d7}, [r1]!
    5350:	f420028d 	vld1.32	{d0-d3}, [r0]!
    5354:	f2000d04 	vadd.f32	d0, d0, d4
    5358:	f421478d 	vld1.32	{d4}, [r1]!
    535c:	f2011d05 	vadd.f32	d1, d1, d5
    5360:	f421578d 	vld1.32	{d5}, [r1]!
    5364:	f2022d06 	vadd.f32	d2, d2, d6
    5368:	f421678d 	vld1.32	{d6}, [r1]!
    536c:	f2033d07 	vadd.f32	d3, d3, d7
    5370:	f421778d 	vld1.32	{d7}, [r1]!
    5374:	f403028d 	vst1.32	{d0-d3}, [r3]!
    5378:	f420028d 	vld1.32	{d0-d3}, [r0]!
    537c:	f2000d04 	vadd.f32	d0, d0, d4
    5380:	f421478d 	vld1.32	{d4}, [r1]!
    5384:	f2011d05 	vadd.f32	d1, d1, d5
    5388:	f421578d 	vld1.32	{d5}, [r1]!
    538c:	f2022d06 	vadd.f32	d2, d2, d6
    5390:	f421678d 	vld1.32	{d6}, [r1]!
    5394:	f2033d07 	vadd.f32	d3, d3, d7
    5398:	f421778d 	vld1.32	{d7}, [r1]!
    539c:	f403028d 	vst1.32	{d0-d3}, [r3]!
    53a0:	e2522010 	subs	r2, r2, #16
    53a4:	1affffe9 	bne	5350 <sumarSenalesASM+0x10>
    53a8:	f420028d 	vld1.32	{d0-d3}, [r0]!
    53ac:	f2000d04 	vadd.f32	d0, d0, d4
    53b0:	f2011d05 	vadd.f32	d1, d1, d5
    53b4:	f2022d06 	vadd.f32	d2, d2, d6
    53b8:	f2033d07 	vadd.f32	d3, d3, d7
    53bc:	f403028d 	vst1.32	{d0-d3}, [r3]!
    53c0:	e8bd5808 	pop	{r3, fp, ip, lr}
    53c4:	e12fff1e 	bx	lr

000053c8 <multiplicarVentanasMonoASM>:
    53c8:	e92d5808 	push	{r3, fp, ip, lr}
    53cc:	e1a03000 	mov	r3, r0
    53d0:	e2522010 	subs	r2, r2, #16
    53d4:	f421428d 	vld1.32	{d4-d7}, [r1]!
    53d8:	f420028d 	vld1.32	{d0-d3}, [r0]!
    53dc:	f3000d14 	vmul.f32	d0, d0, d4
    53e0:	f421478d 	vld1.32	{d4}, [r1]!
    53e4:	f3011d15 	vmul.f32	d1, d1, d5
    53e8:	f421578d 	vld1.32	{d5}, [r1]!
    53ec:	f3022d16 	vmul.f32	d2, d2, d6
    53f0:	f421678d 	vld1.32	{d6}, [r1]!
    53f4:	f3033d17 	vmul.f32	d3, d3, d7
    53f8:	f421778d 	vld1.32	{d7}, [r1]!
    53fc:	f403028d 	vst1.32	{d0-d3}, [r3]!
    5400:	f420028d 	vld1.32	{d0-d3}, [r0]!
    5404:	f3000d14 	vmul.f32	d0, d0, d4
    5408:	f421478d 	vld1.32	{d4}, [r1]!
    540c:	f3011d15 	vmul.f32	d1, d1, d5
    5410:	f421578d 	vld1.32	{d5}, [r1]!
    5414:	f3022d16 	vmul.f32	d2, d2, d6
    5418:	f421678d 	vld1.32	{d6}, [r1]!
    541c:	f3033d17 	vmul.f32	d3, d3, d7
    5420:	f421778d 	vld1.32	{d7}, [r1]!
    5424:	f403028d 	vst1.32	{d0-d3}, [r3]!
    5428:	e2522010 	subs	r2, r2, #16
    542c:	1affffe9 	bne	53d8 <multiplicarVentanasMonoASM+0x10>
    5430:	f420028d 	vld1.32	{d0-d3}, [r0]!
    5434:	f3000d14 	vmul.f32	d0, d0, d4
    5438:	f3011d15 	vmul.f32	d1, d1, d5
    543c:	f3022d16 	vmul.f32	d2, d2, d6
    5440:	f3033d17 	vmul.f32	d3, d3, d7
    5444:	f403028d 	vst1.32	{d0-d3}, [r3]!
    5448:	e8bd5808 	pop	{r3, fp, ip, lr}
    544c:	e12fff1e 	bx	lr

00005450 <multiplicarVentanasStereoASM>:
    5450:	e92d5800 	push	{fp, ip, lr}
    5454:	e1a02082 	lsl	r2, r2, #1
    5458:	f420038f 	vld2.32	{d0-d3}, [r0]
    545c:	f4214a8d 	vld1.32	{d4-d5}, [r1]!
    5460:	f3000d54 	vmul.f32	q0, q0, q2
    5464:	f3022d54 	vmul.f32	q1, q1, q2
    5468:	f400038d 	vst2.32	{d0-d3}, [r0]!
    546c:	e2522008 	subs	r2, r2, #8
    5470:	1afffff8 	bne	5458 <multiplicarVentanasStereoASM+0x8>
    5474:	e8bd5800 	pop	{fp, ip, lr}
    5478:	e12fff1e 	bx	lr

0000547c <getFlotasInt16ASM>:
    547c:	e92d5800 	push	{fp, ip, lr}
    5480:	e59f3438 	ldr	r3, [pc, #1080]	; 58c0 <rIFFTyaosASM_2+0x38>
    5484:	f4a3080f 	vld1.32	{d0[0]}, [r3]
    5488:	eef00a40 	vmov.f32	s1, s0
    548c:	eeb01a40 	vmov.f32	s2, s0
    5490:	eef01a40 	vmov.f32	s3, s0
    5494:	f42027cd 	vld1.64	{d2}, [r0]!
    5498:	f2902a12 	vmovl.s16	q1, d2
    549c:	f3bb2642 	vcvt.f32.s32	q1, q1
    54a0:	f3022d50 	vmul.f32	q1, q1, q0
    54a4:	f4012acd 	vst1.64	{d2-d3}, [r1]!
    54a8:	e2522004 	subs	r2, r2, #4
    54ac:	1afffff8 	bne	5494 <getFlotasInt16ASM+0x18>
    54b0:	e8bd5800 	pop	{fp, ip, lr}
    54b4:	e12fff1e 	bx	lr

000054b8 <multiplicarEspectrosASM>:
    54b8:	e92d5800 	push	{fp, ip, lr}
    54bc:	e1a03000 	mov	r3, r0
    54c0:	e2522001 	subs	r2, r2, #1
    54c4:	f420088d 	vld2.32	{d0-d1}, [r0]!
    54c8:	f421288d 	vld2.32	{d2-d3}, [r1]!
    54cc:	f3004d12 	vmul.f32	d4, d0, d2
    54d0:	f2214d13 	vmls.f32	d4, d1, d3
    54d4:	f3005d13 	vmul.f32	d5, d0, d3
    54d8:	f2015d12 	vmla.f32	d5, d1, d2
    54dc:	f403488d 	vst2.32	{d4-d5}, [r3]!
    54e0:	e2522002 	subs	r2, r2, #2
    54e4:	1afffff6 	bne	54c4 <multiplicarEspectrosASM+0xc>
    54e8:	f4a0090d 	vld2.32	{d0[0],d1[0]}, [r0]!
    54ec:	f4a1290d 	vld2.32	{d2[0],d3[0]}, [r1]!
    54f0:	f3004d11 	vmul.f32	d4, d0, d1
    54f4:	f2214d13 	vmls.f32	d4, d1, d3
    54f8:	f3005d13 	vmul.f32	d5, d0, d3
    54fc:	f2015d12 	vmla.f32	d5, d1, d2
    5500:	f483490d 	vst2.32	{d4[0],d5[0]}, [r3]!
    5504:	e8bd5800 	pop	{fp, ip, lr}
    5508:	e12fff1e 	bx	lr

0000550c <getIntsInt16_ditherASM>:
    550c:	e92d5810 	push	{r4, fp, ip, lr}
    5510:	e59f33ac 	ldr	r3, [pc, #940]	; 58c4 <rIFFTyaosASM_2+0x3c>
    5514:	f4a3088f 	vld1.32	{d0[1]}, [r3]
    5518:	e59f33a8 	ldr	r3, [pc, #936]	; 58c8 <rIFFTyaosASM_2+0x40>
    551c:	f4a3180f 	vld1.32	{d1[0]}, [r3]
    5520:	e59f33a4 	ldr	r3, [pc, #932]	; 58cc <rIFFTyaosASM_2+0x44>
    5524:	f4a3280f 	vld1.32	{d2[0]}, [r3]
    5528:	e59f33a0 	ldr	r3, [pc, #928]	; 58d0 <rIFFTyaosASM_2+0x48>
    552c:	f4a3380f 	vld1.32	{d3[0]}, [r3]
    5530:	e59f3388 	ldr	r3, [pc, #904]	; 58c0 <rIFFTyaosASM_2+0x38>
    5534:	f4a3388f 	vld1.32	{d3[1]}, [r3]
    5538:	e59f3394 	ldr	r3, [pc, #916]	; 58d4 <rIFFTyaosASM_2+0x4c>
    553c:	f4a3480f 	vld1.32	{d4[0]}, [r3]
    5540:	e59f3390 	ldr	r3, [pc, #912]	; 58d8 <rIFFTyaosASM_2+0x50>
    5544:	f4a3488f 	vld1.32	{d4[1]}, [r3]
    5548:	e59f338c 	ldr	r3, [pc, #908]	; 58dc <rIFFTyaosASM_2+0x54>
    554c:	e5933000 	ldr	r3, [r3]
    5550:	f4a1080d 	vld1.32	{d0[0]}, [r1]!
    5554:	ee020a41 	vmls.f32	s0, s4, s2
    5558:	ee300a20 	vadd.f32	s0, s0, s1
    555c:	ee702a04 	vadd.f32	s5, s0, s8
    5560:	f4a3580d 	vld1.32	{d5[0]}, [r3]!
    5564:	ee442a85 	vmla.f32	s5, s9, s10
    5568:	ee622a83 	vmul.f32	s5, s5, s6
    556c:	eeb01a60 	vmov.f32	s2, s1
    5570:	eefd2ae2 	vcvt.s32.f32	s5, s5
    5574:	ee124a90 	vmov	r4, s5
    5578:	42444001 	submi	r4, r4, #1
    557c:	e0c040b2 	strh	r4, [r0], #2
    5580:	ee024a90 	vmov	s5, r4
    5584:	eef82ae2 	vcvt.f32.s32	s5, s5
    5588:	eef00a40 	vmov.f32	s1, s0
    558c:	ee430ae2 	vmls.f32	s1, s7, s5
    5590:	e2522001 	subs	r2, r2, #1
    5594:	1affffed 	bne	5550 <getIntsInt16_ditherASM+0x44>
    5598:	e59f3324 	ldr	r3, [pc, #804]	; 58c4 <rIFFTyaosASM_2+0x3c>
    559c:	f483088f 	vst1.32	{d0[1]}, [r3]
    55a0:	e59f3320 	ldr	r3, [pc, #800]	; 58c8 <rIFFTyaosASM_2+0x40>
    55a4:	f483180f 	vst1.32	{d1[0]}, [r3]
    55a8:	e8bd5810 	pop	{r4, fp, ip, lr}
    55ac:	e12fff1e 	bx	lr

000055b0 <bucleMedioFftASM>:
    55b0:	e92d5ff0 	push	{r4, r5, r6, r7, r8, r9, sl, fp, ip, lr}
    55b4:	e5907000 	ldr	r7, [r0]
    55b8:	e1a06181 	lsl	r6, r1, #3
    55bc:	e5929000 	ldr	r9, [r2]
    55c0:	e593a000 	ldr	sl, [r3]
    55c4:	e59d4028 	ldr	r4, [sp, #40]	; 0x28
    55c8:	e59d502c 	ldr	r5, [sp, #44]	; 0x2c
    55cc:	f4a4080f 	vld1.32	{d0[0]}, [r4]
    55d0:	f3b40c40 	vdup.32	q0, d0[0]
    55d4:	f4a5280f 	vld1.32	{d2[0]}, [r5]
    55d8:	f3b42c42 	vdup.32	q1, d2[0]
    55dc:	e0878006 	add	r8, r7, r6
    55e0:	e3510004 	cmp	r1, #4
    55e4:	ba00000e 	blt	5624 <bucleMedioFftASM+0x74>
    55e8:	f428438f 	vld2.32	{d4-d7}, [r8]
    55ec:	f3448d52 	vmul.f32	q12, q2, q1
    55f0:	f2668d50 	vmls.f32	q12, q3, q0
    55f4:	f344ad50 	vmul.f32	q13, q2, q0
    55f8:	f246ad52 	vmla.f32	q13, q3, q1
    55fc:	f467438d 	vld2.32	{d20-d23}, [r7]!
    5600:	f2044de8 	vadd.f32	q2, q10, q12
    5604:	f2066dea 	vadd.f32	q3, q11, q13
    5608:	f409438d 	vst2.32	{d4-d7}, [r9]!
    560c:	f2644de8 	vsub.f32	q10, q10, q12
    5610:	f2666dea 	vsub.f32	q11, q11, q13
    5614:	f44a438d 	vst2.32	{d20-d23}, [sl]!
    5618:	e2511004 	subs	r1, r1, #4
    561c:	1affffee 	bne	55dc <bucleMedioFftASM+0x2c>
    5620:	ea00001e 	b	56a0 <bucleMedioFftASM+0xf0>
    5624:	e3510002 	cmp	r1, #2
    5628:	ba00000e 	blt	5668 <bucleMedioFftASM+0xb8>
    562c:	f428498f 	vld2.32	{d4,d6}, [r8]
    5630:	f3448d52 	vmul.f32	q12, q2, q1
    5634:	f2668d50 	vmls.f32	q12, q3, q0
    5638:	f344ad50 	vmul.f32	q13, q2, q0
    563c:	f246ad52 	vmla.f32	q13, q3, q1
    5640:	f467498d 	vld2.32	{d20,d22}, [r7]!
    5644:	f2044de8 	vadd.f32	q2, q10, q12
    5648:	f2066dea 	vadd.f32	q3, q11, q13
    564c:	f409498d 	vst2.32	{d4,d6}, [r9]!
    5650:	f2644de8 	vsub.f32	q10, q10, q12
    5654:	f2666dea 	vsub.f32	q11, q11, q13
    5658:	f44a498d 	vst2.32	{d20,d22}, [sl]!
    565c:	e2511002 	subs	r1, r1, #2
    5660:	1affffdd 	bne	55dc <bucleMedioFftASM+0x2c>
    5664:	ea00000d 	b	56a0 <bucleMedioFftASM+0xf0>
    5668:	f4a8494f 	vld2.32	{d4[0],d6[0]}, [r8]
    566c:	f3448d52 	vmul.f32	q12, q2, q1
    5670:	f2668d50 	vmls.f32	q12, q3, q0
    5674:	f344ad50 	vmul.f32	q13, q2, q0
    5678:	f246ad52 	vmla.f32	q13, q3, q1
    567c:	f4e7494d 	vld2.32	{d20[0],d22[0]}, [r7]!
    5680:	f2044de8 	vadd.f32	q2, q10, q12
    5684:	f2066dea 	vadd.f32	q3, q11, q13
    5688:	f489494d 	vst2.32	{d4[0],d6[0]}, [r9]!
    568c:	f2644de8 	vsub.f32	q10, q10, q12
    5690:	f2666dea 	vsub.f32	q11, q11, q13
    5694:	f4ca494d 	vst2.32	{d20[0],d22[0]}, [sl]!
    5698:	e2511001 	subs	r1, r1, #1
    569c:	1affffce 	bne	55dc <bucleMedioFftASM+0x2c>
    56a0:	e5807000 	str	r7, [r0]
    56a4:	e5829000 	str	r9, [r2]
    56a8:	e583a000 	str	sl, [r3]
    56ac:	e8bd5ff0 	pop	{r4, r5, r6, r7, r8, r9, sl, fp, ip, lr}
    56b0:	e12fff1e 	bx	lr

000056b4 <splitMonoASM>:
    56b4:	e92d5870 	push	{r4, r5, r6, fp, ip, lr}
    56b8:	e59d5018 	ldr	r5, [sp, #24]
    56bc:	e1a04185 	lsl	r4, r5, #3
    56c0:	e0844000 	add	r4, r4, r0
    56c4:	e2444018 	sub	r4, r4, #24
    56c8:	e3e0601f 	mvn	r6, #31
    56cc:	f4648386 	vld2.32	{d24-d27}, [r4], r6
    56d0:	f3f88068 	vrev64.32	q12, q12
    56d4:	f3f28029 	vswp	d24, d25
    56d8:	f420038d 	vld2.32	{d0-d3}, [r0]!
    56dc:	f3f8a06a 	vrev64.32	q13, q13
    56e0:	f3f2a02b 	vswp	d26, d27
    56e4:	f421438d 	vld2.32	{d4-d7}, [r1]!
    56e8:	f462438d 	vld2.32	{d20-d23}, [r2]!
    56ec:	f340cd54 	vmul.f32	q14, q0, q2
    56f0:	f262cd56 	vmls.f32	q14, q1, q3
    56f4:	f248cdf4 	vmla.f32	q14, q12, q10
    56f8:	f24acdf6 	vmla.f32	q14, q13, q11
    56fc:	f342ed54 	vmul.f32	q15, q1, q2
    5700:	f240ed56 	vmla.f32	q15, q0, q3
    5704:	f248edf6 	vmla.f32	q15, q12, q11
    5708:	f26aedf4 	vmls.f32	q15, q13, q10
    570c:	f443c38d 	vst2.32	{d28-d31}, [r3]!
    5710:	e2555004 	subs	r5, r5, #4
    5714:	1affffec 	bne	56cc <splitMonoASM+0x18>
    5718:	e8bd5870 	pop	{r4, r5, r6, fp, ip, lr}
    571c:	e12fff1e 	bx	lr

00005720 <bucleMedioSplitStereoASM>:
    5720:	e92d59f0 	push	{r4, r5, r6, r7, r8, fp, ip, lr}
    5724:	eeb60a00 	vmov.f32	s0, #96	; 0x60
    5728:	f3f44c40 	vdup.32	q10, d0[0]
    572c:	e1a040a3 	lsr	r4, r3, #1
    5730:	e1a03183 	lsl	r3, r3, #3
    5734:	e0825003 	add	r5, r2, r3
    5738:	e2455018 	sub	r5, r5, #24
    573c:	e0806003 	add	r6, r0, r3
    5740:	e2466018 	sub	r6, r6, #24
    5744:	e0817003 	add	r7, r1, r3
    5748:	e2477018 	sub	r7, r7, #24
    574c:	e1a031a3 	lsr	r3, r3, #3
    5750:	e3e0801f 	mvn	r8, #31
    5754:	f422038d 	vld2.32	{d0-d3}, [r2]!
    5758:	f4254388 	vld2.32	{d4-d7}, [r5], r8
    575c:	f3b84044 	vrev64.32	q2, q2
    5760:	f3b24005 	vswp	d4, d5
    5764:	f3b86046 	vrev64.32	q3, q3
    5768:	f3b26007 	vswp	d6, d7
    576c:	f2406d44 	vadd.f32	q11, q0, q2
    5770:	f3466df4 	vmul.f32	q11, q11, q10
    5774:	f2628d46 	vsub.f32	q12, q1, q3
    5778:	f3488df4 	vmul.f32	q12, q12, q10
    577c:	f242ad46 	vadd.f32	q13, q1, q3
    5780:	f34aadf4 	vmul.f32	q13, q13, q10
    5784:	f264cd40 	vsub.f32	q14, q2, q0
    5788:	f34ccdf4 	vmul.f32	q14, q14, q10
    578c:	f440638d 	vst2.32	{d22-d25}, [r0]!
    5790:	f441a38d 	vst2.32	{d26-d29}, [r1]!
    5794:	f3f86066 	vrev64.32	q11, q11
    5798:	f3f26027 	vswp	d22, d23
    579c:	f3f88068 	vrev64.32	q12, q12
    57a0:	f3f28029 	vswp	d24, d25
    57a4:	f3f987e8 	vneg.f32	q12, q12
    57a8:	f3f8a06a 	vrev64.32	q13, q13
    57ac:	f3f2a02b 	vswp	d26, d27
    57b0:	f3f8c06c 	vrev64.32	q14, q14
    57b4:	f3f2c02d 	vswp	d28, d29
    57b8:	f3f9c7ec 	vneg.f32	q14, q14
    57bc:	f4466388 	vst2.32	{d22-d25}, [r6], r8
    57c0:	f447a388 	vst2.32	{d26-d29}, [r7], r8
    57c4:	e2544004 	subs	r4, r4, #4
    57c8:	1affffe1 	bne	5754 <bucleMedioSplitStereoASM+0x34>
    57cc:	e8bd59f0 	pop	{r4, r5, r6, r7, r8, fp, ip, lr}
    57d0:	e12fff1e 	bx	lr

000057d4 <bucleEspectroMonoASM>:
    57d4:	e92d5800 	push	{fp, ip, lr}
    57d8:	e0802201 	add	r2, r0, r1, lsl #4
    57dc:	e2422018 	sub	r2, r2, #24
    57e0:	e3e0301f 	mvn	r3, #31
    57e4:	f420038d 	vld2.32	{d0-d3}, [r0]!
    57e8:	f3b927c2 	vneg.f32	q1, q1
    57ec:	f4020383 	vst2.32	{d0-d3}, [r2], r3
    57f0:	e2511004 	subs	r1, r1, #4
    57f4:	1afffffa 	bne	57e4 <bucleEspectroMonoASM+0x10>
    57f8:	e8bd5800 	pop	{fp, ip, lr}
    57fc:	e12fff1e 	bx	lr

00005800 <rIFFTyaomASM_1>:
    5800:	e92d5800 	push	{fp, ip, lr}
    5804:	f420038f 	vld2.32	{d0-d3}, [r0]
    5808:	f3b927c2 	vneg.f32	q1, q1
    580c:	f400038d 	vst2.32	{d0-d3}, [r0]!
    5810:	e2511004 	subs	r1, r1, #4
    5814:	1afffffa 	bne	5804 <rIFFTyaomASM_1+0x4>
    5818:	e8bd5800 	pop	{fp, ip, lr}
    581c:	e12fff1e 	bx	lr

00005820 <rIFFTyaomASM_2>:
    5820:	e92d5800 	push	{fp, ip, lr}
    5824:	ee001a10 	vmov	s0, r1
    5828:	eeb80ac0 	vcvt.f32.s32	s0, s0
    582c:	eef70a00 	vmov.f32	s1, #112	; 0x70
    5830:	ee800a80 	vdiv.f32	s0, s1, s0
    5834:	f3f44c40 	vdup.32	q10, d0[0]
    5838:	f420038f 	vld2.32	{d0-d3}, [r0]
    583c:	f3000d74 	vmul.f32	q0, q0, q10
    5840:	f3022d74 	vmul.f32	q1, q1, q10
    5844:	f3b927c2 	vneg.f32	q1, q1
    5848:	f400038d 	vst2.32	{d0-d3}, [r0]!
    584c:	e2511004 	subs	r1, r1, #4
    5850:	1afffff8 	bne	5838 <rIFFTyaomASM_2+0x18>
    5854:	e8bd5800 	pop	{fp, ip, lr}
    5858:	e12fff1e 	bx	lr

0000585c <rIFFTyaosASM_1>:
    585c:	e92d5800 	push	{fp, ip, lr}
    5860:	f421038d 	vld2.32	{d0-d3}, [r1]!
    5864:	f422438d 	vld2.32	{d4-d7}, [r2]!
    5868:	f2604d46 	vsub.f32	q10, q0, q3
    586c:	f2426d44 	vadd.f32	q11, q1, q2
    5870:	f3f967e6 	vneg.f32	q11, q11
    5874:	f440438d 	vst2.32	{d20-d23}, [r0]!
    5878:	e2533004 	subs	r3, r3, #4
    587c:	1afffff7 	bne	5860 <rIFFTyaosASM_1+0x4>
    5880:	e8bd5800 	pop	{fp, ip, lr}
    5884:	e12fff1e 	bx	lr

00005888 <rIFFTyaosASM_2>:
    5888:	e92d5800 	push	{fp, ip, lr}
    588c:	ee002a10 	vmov	s0, r2
    5890:	eeb80ac0 	vcvt.f32.s32	s0, s0
    5894:	eef70a00 	vmov.f32	s1, #112	; 0x70
    5898:	ee800a80 	vdiv.f32	s0, s1, s0
    589c:	f3f44c40 	vdup.32	q10, d0[0]
    58a0:	f421038d 	vld2.32	{d0-d3}, [r1]!
    58a4:	f3000d74 	vmul.f32	q0, q0, q10
    58a8:	f3022d74 	vmul.f32	q1, q1, q10
    58ac:	f400038d 	vst2.32	{d0-d3}, [r0]!
    58b0:	e2522004 	subs	r2, r2, #4
    58b4:	1afffff9 	bne	58a0 <rIFFTyaosASM_2+0x18>
    58b8:	e8bd5800 	pop	{fp, ip, lr}
    58bc:	e12fff1e 	bx	lr
    58c0:	000094b4 			; <UNDEFINED> instruction: 0x000094b4
    58c4:	000094a4 	andeq	r9, r0, r4, lsr #9
    58c8:	000094a8 	andeq	r9, r0, r8, lsr #9
    58cc:	000094a0 	andeq	r9, r0, r0, lsr #9
    58d0:	000094b0 			; <UNDEFINED> instruction: 0x000094b0
    58d4:	00009498 	muleq	r0, r8, r4
    58d8:	0000948c 	andeq	r9, r0, ip, lsl #9
    58dc:	0000949c 	muleq	r0, ip, r4
    58e0:	4603b507 	strmi	fp, [r3], -r7, lsl #10
    58e4:	46084a04 	strmi	r4, [r8], -r4, lsl #20
    58e8:	90004904 	andls	r4, r0, r4, lsl #18
    58ec:	4479447a 	ldrbtmi	r4, [r9], #-1146	; 0x47a
    58f0:	f7fc2004 			; <UNDEFINED> instruction: 0xf7fc2004
    58f4:	bd0eeae2 	vstrlt	s28, [lr, #-904]	; 0xfffffc78
    58f8:	0000217c 	andeq	r2, r0, ip, ror r1
    58fc:	00002170 	andeq	r2, r0, r0, ror r1
    5900:	4603b507 	strmi	fp, [r3], -r7, lsl #10
    5904:	f88d0a0a 			; <UNDEFINED> instruction: 0xf88d0a0a
    5908:	f88d1004 			; <UNDEFINED> instruction: 0xf88d1004
    590c:	a8012005 	stmdage	r1, {r0, r2, sp}
    5910:	0e090c0a 	cdpeq	12, 0, cr0, cr9, cr10, {0}
    5914:	2006f88d 	andcs	pc, r6, sp, lsl #17
    5918:	f88d2204 			; <UNDEFINED> instruction: 0xf88d2204
    591c:	21011007 	tstcs	r1, r7
    5920:	eac4f7fc 	b	ff143918 <_end+0xff13a45a>
    5924:	bf183804 	svclt	0x00183804
    5928:	bd0e2001 	stclt	0, cr2, [lr, #-4]
    592c:	4b0db538 	blmi	372e14 <_end+0x369956>
    5930:	681b447b 	ldmdavs	fp, {r0, r1, r3, r4, r5, r6, sl, lr}
    5934:	4b0cb9a3 	blmi	333fc8 <_end+0x32ab0a>
    5938:	447b6dd2 	ldrbtmi	r6, [fp], #-3538	; 0xdd2
    593c:	b17c681c 	cmnlt	ip, ip, lsl r8
    5940:	b16d685d 	cmnlt	sp, sp, asr r8
    5944:	68d96898 	ldmvs	r9, {r3, r4, r7, fp, sp, lr}^
    5948:	f0001a10 			; <UNDEFINED> instruction: 0xf0001a10
    594c:	2800eb22 	stmdacs	r0, {r1, r5, r8, r9, fp, sp, lr, pc}
    5950:	42a8db06 	adcmi	sp, r8, #6144	; 0x1800
    5954:	f834da04 			; <UNDEFINED> instruction: 0xf834da04
    5958:	33013010 	movwcc	r3, #4112	; 0x1010
    595c:	3010f824 	andscc	pc, r0, r4, lsr #16
    5960:	bf00bd38 	svclt	0x0000bd38
    5964:	00003814 	andeq	r3, r0, r4, lsl r8
    5968:	0000382a 	andeq	r3, r0, sl, lsr #16

0000596c <monstartup>:
    596c:	e92d 41f0 	stmdb	sp!, {r4, r5, r6, r7, r8, lr}
    5970:	4607      	mov	r7, r0
    5972:	4961      	ldr	r1, [pc, #388]	; (5af8 <monstartup+0x18c>)
    5974:	b08c      	sub	sp, #48	; 0x30
    5976:	4861      	ldr	r0, [pc, #388]	; (5afc <monstartup+0x190>)
    5978:	4479      	add	r1, pc
    597a:	4478      	add	r0, pc
    597c:	f7fc ea4e 	blx	1e1c <fopen@plt>
    5980:	4639      	mov	r1, r7
    5982:	f000 faa7 	bl	5ed4 <moncleanup+0x390>
    5986:	4b5e      	ldr	r3, [pc, #376]	; (5b00 <monstartup+0x194>)
    5988:	447b      	add	r3, pc
    598a:	6118      	str	r0, [r3, #16]
    598c:	b910      	cbnz	r0, 5994 <monstartup+0x28>
    598e:	495d      	ldr	r1, [pc, #372]	; (5b04 <monstartup+0x198>)
    5990:	4479      	add	r1, pc
    5992:	e03c      	b.n	5a0e <monstartup+0xa2>
    5994:	6846      	ldr	r6, [r0, #4]
    5996:	6885      	ldr	r5, [r0, #8]
    5998:	4c5b      	ldr	r4, [pc, #364]	; (5b08 <monstartup+0x19c>)
    599a:	9600      	str	r6, [sp, #0]
    599c:	9501      	str	r5, [sp, #4]
    599e:	447c      	add	r4, pc
    59a0:	6803      	ldr	r3, [r0, #0]
    59a2:	2004      	movs	r0, #4
    59a4:	4a59      	ldr	r2, [pc, #356]	; (5b0c <monstartup+0x1a0>)
    59a6:	4621      	mov	r1, r4
    59a8:	9302      	str	r3, [sp, #8]
    59aa:	447a      	add	r2, pc
    59ac:	463b      	mov	r3, r7
    59ae:	f7fc ea84 	blx	1eb8 <__android_log_print@plt>
    59b2:	4857      	ldr	r0, [pc, #348]	; (5b10 <monstartup+0x1a4>)
    59b4:	4478      	add	r0, pc
    59b6:	f7fc ea86 	blx	1ec4 <getenv@plt>
    59ba:	b180      	cbz	r0, 59de <monstartup+0x72>
    59bc:	2100      	movs	r1, #0
    59be:	460a      	mov	r2, r1
    59c0:	f7fc ea86 	blx	1ed0 <strtol@plt>
    59c4:	2800      	cmp	r0, #0
    59c6:	4603      	mov	r3, r0
    59c8:	dd03      	ble.n	59d2 <monstartup+0x66>
    59ca:	4a52      	ldr	r2, [pc, #328]	; (5b14 <monstartup+0x1a8>)
    59cc:	447a      	add	r2, pc
    59ce:	6050      	str	r0, [r2, #4]
    59d0:	e005      	b.n	59de <monstartup+0x72>
    59d2:	4a51      	ldr	r2, [pc, #324]	; (5b18 <monstartup+0x1ac>)
    59d4:	2004      	movs	r0, #4
    59d6:	4621      	mov	r1, r4
    59d8:	447a      	add	r2, pc
    59da:	f7fc ea6e 	blx	1eb8 <__android_log_print@plt>
    59de:	4c4f      	ldr	r4, [pc, #316]	; (5b1c <monstartup+0x1b0>)
    59e0:	3503      	adds	r5, #3
    59e2:	f026 0603 	bic.w	r6, r6, #3
    59e6:	f025 0503 	bic.w	r5, r5, #3
    59ea:	447c      	add	r4, pc
    59ec:	2302      	movs	r3, #2
    59ee:	2001      	movs	r0, #1
    59f0:	60a6      	str	r6, [r4, #8]
    59f2:	1bae      	subs	r6, r5, r6
    59f4:	6165      	str	r5, [r4, #20]
    59f6:	ea4f 0856 	mov.w	r8, r6, lsr #1
    59fa:	61a6      	str	r6, [r4, #24]
    59fc:	60e3      	str	r3, [r4, #12]
    59fe:	ea4f 0148 	mov.w	r1, r8, lsl #1
    5a02:	f7fc ea6c 	blx	1edc <calloc@plt>
    5a06:	4607      	mov	r7, r0
    5a08:	b920      	cbnz	r0, 5a14 <monstartup+0xa8>
    5a0a:	4945      	ldr	r1, [pc, #276]	; (5b20 <monstartup+0x1b4>)
    5a0c:	4479      	add	r1, pc
    5a0e:	f7ff ff67 	bl	58e0 <rIFFTyaosASM_2+0x58>
    5a12:	e06a      	b.n	5aea <monstartup+0x17e>
    5a14:	00b1      	lsls	r1, r6, #2
    5a16:	2001      	movs	r0, #1
    5a18:	f7fc ea60 	blx	1edc <calloc@plt>
    5a1c:	61e0      	str	r0, [r4, #28]
    5a1e:	b948      	cbnz	r0, 5a34 <monstartup+0xc8>
    5a20:	4940      	ldr	r1, [pc, #256]	; (5b24 <monstartup+0x1b8>)
    5a22:	4479      	add	r1, pc
    5a24:	f7ff ff5c 	bl	58e0 <rIFFTyaosASM_2+0x58>
    5a28:	4638      	mov	r0, r7
    5a2a:	b00c      	add	sp, #48	; 0x30
    5a2c:	e8bd 41f0 	ldmia.w	sp!, {r4, r5, r6, r7, r8, lr}
    5a30:	f001 bdb2 	b.w	7598 <_Unwind_GetTextRelBase+0x28>
    5a34:	0070      	lsls	r0, r6, #1
    5a36:	2164      	movs	r1, #100	; 0x64
    5a38:	f000 eaaa 	blx	5f90 <__aeabi_uidiv>
    5a3c:	2332      	movs	r3, #50	; 0x32
    5a3e:	2831      	cmp	r0, #49	; 0x31
    5a40:	6220      	str	r0, [r4, #32]
    5a42:	dd03      	ble.n	5a4c <monstartup+0xe0>
    5a44:	f64f 73fe 	movw	r3, #65534	; 0xfffe
    5a48:	4298      	cmp	r0, r3
    5a4a:	dd00      	ble.n	5a4e <monstartup+0xe2>
    5a4c:	6223      	str	r3, [r4, #32]
    5a4e:	4c36      	ldr	r4, [pc, #216]	; (5b28 <monstartup+0x1bc>)
    5a50:	210c      	movs	r1, #12
    5a52:	2001      	movs	r0, #1
    5a54:	447c      	add	r4, pc
    5a56:	6a23      	ldr	r3, [r4, #32]
    5a58:	4359      	muls	r1, r3
    5a5a:	f7fc ea40 	blx	1edc <calloc@plt>
    5a5e:	4605      	mov	r5, r0
    5a60:	6260      	str	r0, [r4, #36]	; 0x24
    5a62:	b958      	cbnz	r0, 5a7c <monstartup+0x110>
    5a64:	4931      	ldr	r1, [pc, #196]	; (5b2c <monstartup+0x1c0>)
    5a66:	4479      	add	r1, pc
    5a68:	f7ff ff3a 	bl	58e0 <rIFFTyaosASM_2+0x58>
    5a6c:	4638      	mov	r0, r7
    5a6e:	f7fc e9d0 	blx	1e10 <free@plt>
    5a72:	69e0      	ldr	r0, [r4, #28]
    5a74:	f7fc e9cc 	blx	1e10 <free@plt>
    5a78:	61e5      	str	r5, [r4, #28]
    5a7a:	e036      	b.n	5aea <monstartup+0x17e>
    5a7c:	2200      	movs	r2, #0
    5a7e:	e884 0180 	stmia.w	r4, {r7, r8}
    5a82:	8102      	strh	r2, [r0, #8]
    5a84:	f1b8 0f00 	cmp.w	r8, #0
    5a88:	d02f      	beq.n	5aea <monstartup+0x17e>
    5a8a:	4b19      	ldr	r3, [pc, #100]	; (5af0 <monstartup+0x184>)
    5a8c:	201b      	movs	r0, #27
    5a8e:	a904      	add	r1, sp, #16
    5a90:	9205      	str	r2, [sp, #20]
    5a92:	9306      	str	r3, [sp, #24]
    5a94:	4b26      	ldr	r3, [pc, #152]	; (5b30 <monstartup+0x1c4>)
    5a96:	447b      	add	r3, pc
    5a98:	9304      	str	r3, [sp, #16]
    5a9a:	f7fc ea26 	blx	1ee8 <sigaction@plt>
    5a9e:	4604      	mov	r4, r0
    5aa0:	b160      	cbz	r0, 5abc <monstartup+0x150>
    5aa2:	f7fc ea28 	blx	1ef4 <__errno@plt>
    5aa6:	4923      	ldr	r1, [pc, #140]	; (5b34 <monstartup+0x1c8>)
    5aa8:	4a23      	ldr	r2, [pc, #140]	; (5b38 <monstartup+0x1cc>)
    5aaa:	4479      	add	r1, pc
    5aac:	447a      	add	r2, pc
    5aae:	6803      	ldr	r3, [r0, #0]
    5ab0:	2004      	movs	r0, #4
    5ab2:	9300      	str	r3, [sp, #0]
    5ab4:	4623      	mov	r3, r4
    5ab6:	f7fc ea00 	blx	1eb8 <__android_log_print@plt>
    5aba:	e012      	b.n	5ae2 <monstartup+0x176>
    5abc:	4b1f      	ldr	r3, [pc, #124]	; (5b3c <monstartup+0x1d0>)
    5abe:	9008      	str	r0, [sp, #32]
    5ac0:	447b      	add	r3, pc
    5ac2:	480c      	ldr	r0, [pc, #48]	; (5af4 <monstartup+0x188>)
    5ac4:	6859      	ldr	r1, [r3, #4]
    5ac6:	f000 eac8 	blx	6058 <__aeabi_idiv>
    5aca:	ab08      	add	r3, sp, #32
    5acc:	aa0c      	add	r2, sp, #48	; 0x30
    5ace:	9009      	str	r0, [sp, #36]	; 0x24
    5ad0:	e893 0003 	ldmia.w	r3, {r0, r1}
    5ad4:	e902 0003 	stmdb	r2, {r0, r1}
    5ad8:	2002      	movs	r0, #2
    5ada:	4619      	mov	r1, r3
    5adc:	4622      	mov	r2, r4
    5ade:	f7fc ea10 	blx	1f00 <setitimer@plt>
    5ae2:	4b17      	ldr	r3, [pc, #92]	; (5b40 <monstartup+0x1d4>)
    5ae4:	2200      	movs	r2, #0
    5ae6:	447b      	add	r3, pc
    5ae8:	601a      	str	r2, [r3, #0]
    5aea:	b00c      	add	sp, #48	; 0x30
    5aec:	e8bd 81f0 	ldmia.w	sp!, {r4, r5, r6, r7, r8, pc}
    5af0:	0004      	movs	r4, r0
    5af2:	1000      	asrs	r0, r0, #32
    5af4:	4240      	negs	r0, r0
    5af6:	000f      	movs	r7, r1
    5af8:	2107      	movs	r1, #7
    5afa:	0000      	movs	r0, r0
    5afc:	20f5      	movs	r0, #245	; 0xf5
    5afe:	0000      	movs	r0, r0
    5b00:	37dc      	adds	r7, #220	; 0xdc
    5b02:	0000      	movs	r0, r0
    5b04:	20f1      	movs	r0, #241	; 0xf1
    5b06:	0000      	movs	r0, r0
    5b08:	20c0      	movs	r0, #192	; 0xc0
    5b0a:	0000      	movs	r0, r0
    5b0c:	20e5      	movs	r0, #229	; 0xe5
    5b0e:	0000      	movs	r0, r0
    5b10:	20f0      	movs	r0, #240	; 0xf0
    5b12:	0000      	movs	r0, r0
    5b14:	3778      	adds	r7, #120	; 0x78
    5b16:	0000      	movs	r0, r0
    5b18:	20e1      	movs	r0, #225	; 0xe1
    5b1a:	0000      	movs	r0, r0
    5b1c:	377a      	adds	r7, #122	; 0x7a
    5b1e:	0000      	movs	r0, r0
    5b20:	20c9      	movs	r0, #201	; 0xc9
    5b22:	0000      	movs	r0, r0
    5b24:	20b3      	movs	r0, #179	; 0xb3
    5b26:	0000      	movs	r0, r0
    5b28:	3710      	adds	r7, #16
    5b2a:	0000      	movs	r0, r0
    5b2c:	206f      	movs	r0, #111	; 0x6f
    5b2e:	0000      	movs	r0, r0
    5b30:	fe93 ffff 	mrc2	15, 4, pc, cr3, cr15, {7}
    5b34:	1fb4      	subs	r4, r6, #6
    5b36:	0000      	movs	r0, r0
    5b38:	204b      	movs	r0, #75	; 0x4b
    5b3a:	0000      	movs	r0, r0
    5b3c:	3684      	adds	r6, #132	; 0x84
    5b3e:	0000      	movs	r0, r0
    5b40:	365e      	adds	r6, #94	; 0x5e
	...

00005b44 <moncleanup>:
    5b44:	e92d 4ff0 	stmdb	sp!, {r4, r5, r6, r7, r8, r9, sl, fp, lr}
    5b48:	b08f      	sub	sp, #60	; 0x3c
    5b4a:	4d8c      	ldr	r5, [pc, #560]	; (5d7c <moncleanup+0x238>)
    5b4c:	488c      	ldr	r0, [pc, #560]	; (5d80 <moncleanup+0x23c>)
    5b4e:	447d      	add	r5, pc
    5b50:	682d      	ldr	r5, [r5, #0]
    5b52:	4478      	add	r0, pc
    5b54:	682b      	ldr	r3, [r5, #0]
    5b56:	930d      	str	r3, [sp, #52]	; 0x34
    5b58:	f7fc e9b4 	blx	1ec4 <getenv@plt>
    5b5c:	9501      	str	r5, [sp, #4]
    5b5e:	4604      	mov	r4, r0
    5b60:	b120      	cbz	r0, 5b6c <moncleanup+0x28>
    5b62:	7803      	ldrb	r3, [r0, #0]
    5b64:	b923      	cbnz	r3, 5b70 <moncleanup+0x2c>
    5b66:	4c87      	ldr	r4, [pc, #540]	; (5d84 <moncleanup+0x240>)
    5b68:	447c      	add	r4, pc
    5b6a:	e001      	b.n	5b70 <moncleanup+0x2c>
    5b6c:	4c86      	ldr	r4, [pc, #536]	; (5d88 <moncleanup+0x244>)
    5b6e:	447c      	add	r4, pc
    5b70:	4d86      	ldr	r5, [pc, #536]	; (5d8c <moncleanup+0x248>)
    5b72:	2004      	movs	r0, #4
    5b74:	4a86      	ldr	r2, [pc, #536]	; (5d90 <moncleanup+0x24c>)
    5b76:	447d      	add	r5, pc
    5b78:	4e86      	ldr	r6, [pc, #536]	; (5d94 <moncleanup+0x250>)
    5b7a:	447a      	add	r2, pc
    5b7c:	4629      	mov	r1, r5
    5b7e:	447e      	add	r6, pc
    5b80:	f7fc e99a 	blx	1eb8 <__android_log_print@plt>
    5b84:	2100      	movs	r1, #0
    5b86:	2210      	movs	r2, #16
    5b88:	a804      	add	r0, sp, #16
    5b8a:	f7fc e966 	blx	1e58 <memset@plt>
    5b8e:	2200      	movs	r2, #0
    5b90:	a904      	add	r1, sp, #16
    5b92:	2002      	movs	r0, #2
    5b94:	f7fc e9b4 	blx	1f00 <setitimer@plt>
    5b98:	497f      	ldr	r1, [pc, #508]	; (5d98 <moncleanup+0x254>)
    5b9a:	2303      	movs	r3, #3
    5b9c:	2001      	movs	r0, #1
    5b9e:	6033      	str	r3, [r6, #0]
    5ba0:	4479      	add	r1, pc
    5ba2:	f7ff fe9d 	bl	58e0 <rIFFTyaosASM_2+0x58>
    5ba6:	4a7d      	ldr	r2, [pc, #500]	; (5d9c <moncleanup+0x258>)
    5ba8:	4629      	mov	r1, r5
    5baa:	2004      	movs	r0, #4
    5bac:	447a      	add	r2, pc
    5bae:	f7fc e984 	blx	1eb8 <__android_log_print@plt>
    5bb2:	497b      	ldr	r1, [pc, #492]	; (5da0 <moncleanup+0x25c>)
    5bb4:	4620      	mov	r0, r4
    5bb6:	4479      	add	r1, pc
    5bb8:	f7fc e930 	blx	1e1c <fopen@plt>
    5bbc:	4604      	mov	r4, r0
    5bbe:	b920      	cbnz	r0, 5bca <moncleanup+0x86>
    5bc0:	4978      	ldr	r1, [pc, #480]	; (5da4 <moncleanup+0x260>)
    5bc2:	4479      	add	r1, pc
    5bc4:	f7ff fe8c 	bl	58e0 <rIFFTyaosASM_2+0x58>
    5bc8:	e0cc      	b.n	5d64 <moncleanup+0x220>
    5bca:	4b6b      	ldr	r3, [pc, #428]	; (5d78 <moncleanup+0x234>)
    5bcc:	2201      	movs	r2, #1
    5bce:	2114      	movs	r1, #20
    5bd0:	a808      	add	r0, sp, #32
    5bd2:	2700      	movs	r7, #0
    5bd4:	f88d 2024 	strb.w	r2, [sp, #36]	; 0x24
    5bd8:	9308      	str	r3, [sp, #32]
    5bda:	4623      	mov	r3, r4
    5bdc:	f88d 7025 	strb.w	r7, [sp, #37]	; 0x25
    5be0:	f88d 7026 	strb.w	r7, [sp, #38]	; 0x26
    5be4:	f88d 7027 	strb.w	r7, [sp, #39]	; 0x27
    5be8:	f7fc e960 	blx	1eac <fwrite@plt>
    5bec:	2801      	cmp	r0, #1
    5bee:	4601      	mov	r1, r0
    5bf0:	d003      	beq.n	5bfa <moncleanup+0xb6>
    5bf2:	496d      	ldr	r1, [pc, #436]	; (5da8 <moncleanup+0x264>)
    5bf4:	4638      	mov	r0, r7
    5bf6:	4479      	add	r1, pc
    5bf8:	e084      	b.n	5d04 <moncleanup+0x1c0>
    5bfa:	4d6c      	ldr	r5, [pc, #432]	; (5dac <moncleanup+0x268>)
    5bfc:	f10d 0938 	add.w	r9, sp, #56	; 0x38
    5c00:	460a      	mov	r2, r1
    5c02:	447d      	add	r5, pc
    5c04:	f809 7d2b 	strb.w	r7, [r9, #-43]!
    5c08:	4648      	mov	r0, r9
    5c0a:	686b      	ldr	r3, [r5, #4]
    5c0c:	62ab      	str	r3, [r5, #40]	; 0x28
    5c0e:	4623      	mov	r3, r4
    5c10:	f7fc e94c 	blx	1eac <fwrite@plt>
    5c14:	2801      	cmp	r0, #1
    5c16:	4607      	mov	r7, r0
    5c18:	d11d      	bne.n	5c56 <moncleanup+0x112>
    5c1a:	e084      	b.n	5d26 <moncleanup+0x1e2>
    5c1c:	6969      	ldr	r1, [r5, #20]
    5c1e:	6928      	ldr	r0, [r5, #16]
    5c20:	f000 f9a8 	bl	5f74 <moncleanup+0x430>
    5c24:	4601      	mov	r1, r0
    5c26:	4620      	mov	r0, r4
    5c28:	f7ff fe6a 	bl	5900 <rIFFTyaosASM_2+0x78>
    5c2c:	b998      	cbnz	r0, 5c56 <moncleanup+0x112>
    5c2e:	4620      	mov	r0, r4
    5c30:	6aa9      	ldr	r1, [r5, #40]	; 0x28
    5c32:	f7ff fe65 	bl	5900 <rIFFTyaosASM_2+0x78>
    5c36:	b970      	cbnz	r0, 5c56 <moncleanup+0x112>
    5c38:	4620      	mov	r0, r4
    5c3a:	6871      	ldr	r1, [r6, #4]
    5c3c:	f7ff fe60 	bl	5900 <rIFFTyaosASM_2+0x78>
    5c40:	4680      	mov	r8, r0
    5c42:	b940      	cbnz	r0, 5c56 <moncleanup+0x112>
    5c44:	220f      	movs	r2, #15
    5c46:	f106 0008 	add.w	r0, r6, #8
    5c4a:	4639      	mov	r1, r7
    5c4c:	4623      	mov	r3, r4
    5c4e:	f7fc e92e 	blx	1eac <fwrite@plt>
    5c52:	280f      	cmp	r0, #15
    5c54:	d072      	beq.n	5d3c <moncleanup+0x1f8>
    5c56:	4956      	ldr	r1, [pc, #344]	; (5db0 <moncleanup+0x26c>)
    5c58:	4479      	add	r1, pc
    5c5a:	e052      	b.n	5d02 <moncleanup+0x1be>
    5c5c:	f837 3b02 	ldrh.w	r3, [r7], #2
    5c60:	2102      	movs	r1, #2
    5c62:	2201      	movs	r2, #1
    5c64:	f10d 000e 	add.w	r0, sp, #14
    5c68:	f88d 300e 	strb.w	r3, [sp, #14]
    5c6c:	0a1b      	lsrs	r3, r3, #8
    5c6e:	f88d 300f 	strb.w	r3, [sp, #15]
    5c72:	4623      	mov	r3, r4
    5c74:	f7fc e91a 	blx	1eac <fwrite@plt>
    5c78:	2801      	cmp	r0, #1
    5c7a:	d002      	beq.n	5c82 <moncleanup+0x13e>
    5c7c:	494d      	ldr	r1, [pc, #308]	; (5db4 <moncleanup+0x270>)
    5c7e:	4479      	add	r1, pc
    5c80:	e03f      	b.n	5d02 <moncleanup+0x1be>
    5c82:	3601      	adds	r6, #1
    5c84:	6aab      	ldr	r3, [r5, #40]	; 0x28
    5c86:	429e      	cmp	r6, r3
    5c88:	dbe8      	blt.n	5c5c <moncleanup+0x118>
    5c8a:	69ab      	ldr	r3, [r5, #24]
    5c8c:	2700      	movs	r7, #0
    5c8e:	4e4a      	ldr	r6, [pc, #296]	; (5db8 <moncleanup+0x274>)
    5c90:	4d4a      	ldr	r5, [pc, #296]	; (5dbc <moncleanup+0x278>)
    5c92:	ea4f 0b53 	mov.w	fp, r3, lsr #1
    5c96:	447e      	add	r6, pc
    5c98:	447d      	add	r5, pc
    5c9a:	e03e      	b.n	5d1a <moncleanup+0x1d6>
    5c9c:	69f3      	ldr	r3, [r6, #28]
    5c9e:	0079      	lsls	r1, r7, #1
    5ca0:	f833 3017 	ldrh.w	r3, [r3, r7, lsl #1]
    5ca4:	2b00      	cmp	r3, #0
    5ca6:	d037      	beq.n	5d18 <moncleanup+0x1d4>
    5ca8:	68b3      	ldr	r3, [r6, #8]
    5caa:	6930      	ldr	r0, [r6, #16]
    5cac:	18c9      	adds	r1, r1, r3
    5cae:	f000 f961 	bl	5f74 <moncleanup+0x430>
    5cb2:	69f3      	ldr	r3, [r6, #28]
    5cb4:	f833 8017 	ldrh.w	r8, [r3, r7, lsl #1]
    5cb8:	4682      	mov	sl, r0
    5cba:	e02a      	b.n	5d12 <moncleanup+0x1ce>
    5cbc:	2101      	movs	r1, #1
    5cbe:	f88d 100d 	strb.w	r1, [sp, #13]
    5cc2:	2101      	movs	r1, #1
    5cc4:	4648      	mov	r0, r9
    5cc6:	4623      	mov	r3, r4
    5cc8:	460a      	mov	r2, r1
    5cca:	f7fc e8f0 	blx	1eac <fwrite@plt>
    5cce:	2801      	cmp	r0, #1
    5cd0:	d115      	bne.n	5cfe <moncleanup+0x1ba>
    5cd2:	e040      	b.n	5d56 <moncleanup+0x212>
    5cd4:	230c      	movs	r3, #12
    5cd6:	6928      	ldr	r0, [r5, #16]
    5cd8:	fb03 f808 	mul.w	r8, r3, r8
    5cdc:	6a6b      	ldr	r3, [r5, #36]	; 0x24
    5cde:	f853 1008 	ldr.w	r1, [r3, r8]
    5ce2:	f000 f947 	bl	5f74 <moncleanup+0x430>
    5ce6:	4601      	mov	r1, r0
    5ce8:	4620      	mov	r0, r4
    5cea:	f7ff fe09 	bl	5900 <rIFFTyaosASM_2+0x78>
    5cee:	b930      	cbnz	r0, 5cfe <moncleanup+0x1ba>
    5cf0:	6a6b      	ldr	r3, [r5, #36]	; 0x24
    5cf2:	4620      	mov	r0, r4
    5cf4:	4443      	add	r3, r8
    5cf6:	6859      	ldr	r1, [r3, #4]
    5cf8:	f7ff fe02 	bl	5900 <rIFFTyaosASM_2+0x78>
    5cfc:	b128      	cbz	r0, 5d0a <moncleanup+0x1c6>
    5cfe:	4930      	ldr	r1, [pc, #192]	; (5dc0 <moncleanup+0x27c>)
    5d00:	4479      	add	r1, pc
    5d02:	2000      	movs	r0, #0
    5d04:	f7ff fdec 	bl	58e0 <rIFFTyaosASM_2+0x58>
    5d08:	e009      	b.n	5d1e <moncleanup+0x1da>
    5d0a:	6a6b      	ldr	r3, [r5, #36]	; 0x24
    5d0c:	4498      	add	r8, r3
    5d0e:	f8b8 8008 	ldrh.w	r8, [r8, #8]
    5d12:	f1b8 0f00 	cmp.w	r8, #0
    5d16:	d1d1      	bne.n	5cbc <moncleanup+0x178>
    5d18:	3701      	adds	r7, #1
    5d1a:	455f      	cmp	r7, fp
    5d1c:	dbbe      	blt.n	5c9c <moncleanup+0x158>
    5d1e:	4620      	mov	r0, r4
    5d20:	f7fc e888 	blx	1e34 <fclose@plt>
    5d24:	e01e      	b.n	5d64 <moncleanup+0x220>
    5d26:	68a9      	ldr	r1, [r5, #8]
    5d28:	6928      	ldr	r0, [r5, #16]
    5d2a:	f000 f923 	bl	5f74 <moncleanup+0x430>
    5d2e:	4601      	mov	r1, r0
    5d30:	4620      	mov	r0, r4
    5d32:	f7ff fde5 	bl	5900 <rIFFTyaosASM_2+0x78>
    5d36:	2800      	cmp	r0, #0
    5d38:	d18d      	bne.n	5c56 <moncleanup+0x112>
    5d3a:	e76f      	b.n	5c1c <moncleanup+0xd8>
    5d3c:	f106 0018 	add.w	r0, r6, #24
    5d40:	4639      	mov	r1, r7
    5d42:	463a      	mov	r2, r7
    5d44:	4623      	mov	r3, r4
    5d46:	f7fc e8b2 	blx	1eac <fwrite@plt>
    5d4a:	2801      	cmp	r0, #1
    5d4c:	bf04      	itt	eq
    5d4e:	682f      	ldreq	r7, [r5, #0]
    5d50:	4646      	moveq	r6, r8
    5d52:	d180      	bne.n	5c56 <moncleanup+0x112>
    5d54:	e796      	b.n	5c84 <moncleanup+0x140>
    5d56:	4620      	mov	r0, r4
    5d58:	4651      	mov	r1, sl
    5d5a:	f7ff fdd1 	bl	5900 <rIFFTyaosASM_2+0x78>
    5d5e:	2800      	cmp	r0, #0
    5d60:	d0b8      	beq.n	5cd4 <moncleanup+0x190>
    5d62:	e7cc      	b.n	5cfe <moncleanup+0x1ba>
    5d64:	9901      	ldr	r1, [sp, #4]
    5d66:	9a0d      	ldr	r2, [sp, #52]	; 0x34
    5d68:	680b      	ldr	r3, [r1, #0]
    5d6a:	429a      	cmp	r2, r3
    5d6c:	d001      	beq.n	5d72 <moncleanup+0x22e>
    5d6e:	f7fc e868 	blx	1e40 <__stack_chk_fail@plt>
    5d72:	b00f      	add	sp, #60	; 0x3c
    5d74:	e8bd 8ff0 	ldmia.w	sp!, {r4, r5, r6, r7, r8, r9, sl, fp, pc}
    5d78:	6d67      	ldr	r7, [r4, #84]	; 0x54
    5d7a:	6e6f      	ldr	r7, [r5, #100]	; 0x64
    5d7c:	33be      	adds	r3, #190	; 0xbe
    5d7e:	0000      	movs	r0, r0
    5d80:	1fe2      	subs	r2, r4, #7
    5d82:	0000      	movs	r0, r0
    5d84:	1fbb      	subs	r3, r7, #6
    5d86:	0000      	movs	r0, r0
    5d88:	1fb5      	subs	r5, r6, #6
    5d8a:	0000      	movs	r0, r0
    5d8c:	1ee8      	subs	r0, r5, #3
    5d8e:	0000      	movs	r0, r0
    5d90:	1fc5      	subs	r5, r0, #7
    5d92:	0000      	movs	r0, r0
    5d94:	35c6      	adds	r5, #198	; 0xc6
    5d96:	0000      	movs	r0, r0
    5d98:	1fb9      	subs	r1, r7, #6
    5d9a:	0000      	movs	r0, r0
    5d9c:	1fc4      	subs	r4, r0, #7
    5d9e:	0000      	movs	r0, r0
    5da0:	1fcb      	subs	r3, r1, #7
    5da2:	0000      	movs	r0, r0
    5da4:	1fc2      	subs	r2, r0, #7
    5da6:	0000      	movs	r0, r0
    5da8:	1f9f      	subs	r7, r3, #6
    5daa:	0000      	movs	r0, r0
    5dac:	3562      	adds	r5, #98	; 0x62
    5dae:	0000      	movs	r0, r0
    5db0:	1f55      	subs	r5, r2, #5
    5db2:	0000      	movs	r0, r0
    5db4:	1f45      	subs	r5, r0, #5
    5db6:	0000      	movs	r0, r0
    5db8:	34ce      	adds	r4, #206	; 0xce
    5dba:	0000      	movs	r0, r0
    5dbc:	34cc      	adds	r4, #204	; 0xcc
    5dbe:	0000      	movs	r0, r0
    5dc0:	1edb      	subs	r3, r3, #3
    5dc2:	0000      	movs	r0, r0
    5dc4:	4b35      	ldr	r3, [pc, #212]	; (5e9c <moncleanup+0x358>)
    5dc6:	b5f0      	push	{r4, r5, r6, r7, lr}
    5dc8:	447b      	add	r3, pc
    5dca:	681a      	ldr	r2, [r3, #0]
    5dcc:	2a00      	cmp	r2, #0
    5dce:	d163      	bne.n	5e98 <moncleanup+0x354>
    5dd0:	2701      	movs	r7, #1
    5dd2:	601f      	str	r7, [r3, #0]
    5dd4:	4b32      	ldr	r3, [pc, #200]	; (5ea0 <moncleanup+0x35c>)
    5dd6:	447b      	add	r3, pc
    5dd8:	689a      	ldr	r2, [r3, #8]
    5dda:	1a80      	subs	r0, r0, r2
    5ddc:	699a      	ldr	r2, [r3, #24]
    5dde:	4290      	cmp	r0, r2
    5de0:	d84a      	bhi.n	5e78 <moncleanup+0x334>
    5de2:	69da      	ldr	r2, [r3, #28]
    5de4:	40f8      	lsrs	r0, r7
    5de6:	f832 6010 	ldrh.w	r6, [r2, r0, lsl #1]
    5dea:	b986      	cbnz	r6, 5e0e <moncleanup+0x2ca>
    5dec:	6a5c      	ldr	r4, [r3, #36]	; 0x24
    5dee:	6a1b      	ldr	r3, [r3, #32]
    5df0:	8925      	ldrh	r5, [r4, #8]
    5df2:	19ed      	adds	r5, r5, r7
    5df4:	b2ad      	uxth	r5, r5
    5df6:	8125      	strh	r5, [r4, #8]
    5df8:	429d      	cmp	r5, r3
    5dfa:	da42      	bge.n	5e82 <moncleanup+0x33e>
    5dfc:	f822 5010 	strh.w	r5, [r2, r0, lsl #1]
    5e00:	230c      	movs	r3, #12
    5e02:	435d      	muls	r5, r3
    5e04:	1963      	adds	r3, r4, r5
    5e06:	5161      	str	r1, [r4, r5]
    5e08:	605f      	str	r7, [r3, #4]
    5e0a:	811e      	strh	r6, [r3, #8]
    5e0c:	e034      	b.n	5e78 <moncleanup+0x334>
    5e0e:	6a5b      	ldr	r3, [r3, #36]	; 0x24
    5e10:	250c      	movs	r5, #12
    5e12:	436e      	muls	r6, r5
    5e14:	199c      	adds	r4, r3, r6
    5e16:	599e      	ldr	r6, [r3, r6]
    5e18:	428e      	cmp	r6, r1
    5e1a:	bf18      	it	ne
    5e1c:	462f      	movne	r7, r5
    5e1e:	d104      	bne.n	5e2a <moncleanup+0x2e6>
    5e20:	6863      	ldr	r3, [r4, #4]
    5e22:	3301      	adds	r3, #1
    5e24:	6063      	str	r3, [r4, #4]
    5e26:	e027      	b.n	5e78 <moncleanup+0x334>
    5e28:	462c      	mov	r4, r5
    5e2a:	8926      	ldrh	r6, [r4, #8]
    5e2c:	b9a6      	cbnz	r6, 5e58 <moncleanup+0x314>
    5e2e:	4d1d      	ldr	r5, [pc, #116]	; (5ea4 <moncleanup+0x360>)
    5e30:	891c      	ldrh	r4, [r3, #8]
    5e32:	447d      	add	r5, pc
    5e34:	3401      	adds	r4, #1
    5e36:	6a2d      	ldr	r5, [r5, #32]
    5e38:	b2a4      	uxth	r4, r4
    5e3a:	811c      	strh	r4, [r3, #8]
    5e3c:	42ac      	cmp	r4, r5
    5e3e:	da20      	bge.n	5e82 <moncleanup+0x33e>
    5e40:	260c      	movs	r6, #12
    5e42:	4366      	muls	r6, r4
    5e44:	199d      	adds	r5, r3, r6
    5e46:	5199      	str	r1, [r3, r6]
    5e48:	2301      	movs	r3, #1
    5e4a:	606b      	str	r3, [r5, #4]
    5e4c:	f832 1010 	ldrh.w	r1, [r2, r0, lsl #1]
    5e50:	8129      	strh	r1, [r5, #8]
    5e52:	f822 4010 	strh.w	r4, [r2, r0, lsl #1]
    5e56:	e00f      	b.n	5e78 <moncleanup+0x334>
    5e58:	437e      	muls	r6, r7
    5e5a:	199d      	adds	r5, r3, r6
    5e5c:	599e      	ldr	r6, [r3, r6]
    5e5e:	428e      	cmp	r6, r1
    5e60:	d1e2      	bne.n	5e28 <moncleanup+0x2e4>
    5e62:	8929      	ldrh	r1, [r5, #8]
    5e64:	686b      	ldr	r3, [r5, #4]
    5e66:	3301      	adds	r3, #1
    5e68:	606b      	str	r3, [r5, #4]
    5e6a:	8923      	ldrh	r3, [r4, #8]
    5e6c:	8121      	strh	r1, [r4, #8]
    5e6e:	f832 1010 	ldrh.w	r1, [r2, r0, lsl #1]
    5e72:	8129      	strh	r1, [r5, #8]
    5e74:	f822 3010 	strh.w	r3, [r2, r0, lsl #1]
    5e78:	4b0b      	ldr	r3, [pc, #44]	; (5ea8 <moncleanup+0x364>)
    5e7a:	2200      	movs	r2, #0
    5e7c:	447b      	add	r3, pc
    5e7e:	601a      	str	r2, [r3, #0]
    5e80:	bdf0      	pop	{r4, r5, r6, r7, pc}
    5e82:	4b0a      	ldr	r3, [pc, #40]	; (5eac <moncleanup+0x368>)
    5e84:	2202      	movs	r2, #2
    5e86:	490a      	ldr	r1, [pc, #40]	; (5eb0 <moncleanup+0x36c>)
    5e88:	2000      	movs	r0, #0
    5e8a:	447b      	add	r3, pc
    5e8c:	4479      	add	r1, pc
    5e8e:	601a      	str	r2, [r3, #0]
    5e90:	e8bd 40f0 	ldmia.w	sp!, {r4, r5, r6, r7, lr}
    5e94:	f7ff bd24 	b.w	58e0 <rIFFTyaosASM_2+0x58>
    5e98:	bdf0      	pop	{r4, r5, r6, r7, pc}
    5e9a:	bf00      	nop
    5e9c:	337c      	adds	r3, #124	; 0x7c
    5e9e:	0000      	movs	r0, r0
    5ea0:	338e      	adds	r3, #142	; 0x8e
    5ea2:	0000      	movs	r0, r0
    5ea4:	3332      	adds	r3, #50	; 0x32
    5ea6:	0000      	movs	r0, r0
    5ea8:	32c8      	adds	r2, #200	; 0xc8
    5eaa:	0000      	movs	r0, r0
    5eac:	32ba      	adds	r2, #186	; 0xba
    5eae:	0000      	movs	r0, r0
    5eb0:	1d5b      	adds	r3, r3, #5
    5eb2:	0000      	movs	r0, r0
    5eb4:	b538      	push	{r3, r4, r5, lr}
    5eb6:	4604      	mov	r4, r0
    5eb8:	68c0      	ldr	r0, [r0, #12]
    5eba:	e003      	b.n	5ec4 <moncleanup+0x380>
    5ebc:	68c5      	ldr	r5, [r0, #12]
    5ebe:	f7fb efa8 	blx	1e10 <free@plt>
    5ec2:	4628      	mov	r0, r5
    5ec4:	2800      	cmp	r0, #0
    5ec6:	d1f9      	bne.n	5ebc <moncleanup+0x378>
    5ec8:	4620      	mov	r0, r4
    5eca:	e8bd 4038 	ldmia.w	sp!, {r3, r4, r5, lr}
    5ece:	f001 bb63 	b.w	7598 <_Unwind_GetTextRelBase+0x28>
    5ed2:	0000      	movs	r0, r0
    5ed4:	e92d 4ff0 	stmdb	sp!, {r4, r5, r6, r7, r8, r9, sl, fp, lr}
    5ed8:	4683      	mov	fp, r0
    5eda:	b08b      	sub	sp, #44	; 0x2c
    5edc:	4608      	mov	r0, r1
    5ede:	4689      	mov	r9, r1
    5ee0:	f7fc e814 	blx	1f0c <strlen@plt>
    5ee4:	2400      	movs	r4, #0
    5ee6:	4d21      	ldr	r5, [pc, #132]	; (5f6c <moncleanup+0x428>)
    5ee8:	4f21      	ldr	r7, [pc, #132]	; (5f70 <moncleanup+0x42c>)
    5eea:	4626      	mov	r6, r4
    5eec:	447d      	add	r5, pc
    5eee:	447f      	add	r7, pc
    5ef0:	4682      	mov	sl, r0
    5ef2:	e02f      	b.n	5f54 <moncleanup+0x410>
    5ef4:	4628      	mov	r0, r5
    5ef6:	f7fc e80a 	blx	1f0c <strlen@plt>
    5efa:	2300      	movs	r3, #0
    5efc:	1e41      	subs	r1, r0, #1
    5efe:	458a      	cmp	sl, r1
    5f00:	546b      	strb	r3, [r5, r1]
    5f02:	d227      	bcs.n	5f54 <moncleanup+0x410>
    5f04:	ebca 0101 	rsb	r1, sl, r1
    5f08:	4648      	mov	r0, r9
    5f0a:	1869      	adds	r1, r5, r1
    5f0c:	f7fc e804 	blx	1f18 <strcmp@plt>
    5f10:	4680      	mov	r8, r0
    5f12:	b9f8      	cbnz	r0, 5f54 <moncleanup+0x410>
    5f14:	ab06      	add	r3, sp, #24
    5f16:	4628      	mov	r0, r5
    5f18:	9300      	str	r3, [sp, #0]
    5f1a:	4639      	mov	r1, r7
    5f1c:	ab08      	add	r3, sp, #32
    5f1e:	aa07      	add	r2, sp, #28
    5f20:	9301      	str	r3, [sp, #4]
    5f22:	ab05      	add	r3, sp, #20
    5f24:	9302      	str	r3, [sp, #8]
    5f26:	ab09      	add	r3, sp, #36	; 0x24
    5f28:	f7fb effc 	blx	1f24 <sscanf@plt>
    5f2c:	2010      	movs	r0, #16
    5f2e:	b92e      	cbnz	r6, 5f3c <moncleanup+0x3f8>
    5f30:	f7fb ef5c 	blx	1dec <malloc@plt>
    5f34:	60c6      	str	r6, [r0, #12]
    5f36:	4604      	mov	r4, r0
    5f38:	4606      	mov	r6, r0
    5f3a:	e005      	b.n	5f48 <moncleanup+0x404>
    5f3c:	f7fb ef56 	blx	1dec <malloc@plt>
    5f40:	60e0      	str	r0, [r4, #12]
    5f42:	4604      	mov	r4, r0
    5f44:	f8c0 800c 	str.w	r8, [r0, #12]
    5f48:	9b08      	ldr	r3, [sp, #32]
    5f4a:	6023      	str	r3, [r4, #0]
    5f4c:	9b07      	ldr	r3, [sp, #28]
    5f4e:	6063      	str	r3, [r4, #4]
    5f50:	9b09      	ldr	r3, [sp, #36]	; 0x24
    5f52:	60a3      	str	r3, [r4, #8]
    5f54:	4628      	mov	r0, r5
    5f56:	f44f 7180 	mov.w	r1, #256	; 0x100
    5f5a:	465a      	mov	r2, fp
    5f5c:	f7fb efe8 	blx	1f30 <fgets@plt>
    5f60:	2800      	cmp	r0, #0
    5f62:	d1c7      	bne.n	5ef4 <moncleanup+0x3b0>
    5f64:	4630      	mov	r0, r6
    5f66:	b00b      	add	sp, #44	; 0x2c
    5f68:	e8bd 8ff0 	ldmia.w	sp!, {r4, r5, r6, r7, r8, r9, sl, fp, pc}
    5f6c:	32a4      	adds	r2, #164	; 0xa4
    5f6e:	0000      	movs	r0, r0
    5f70:	1d0f      	adds	r7, r1, #4
    5f72:	0000      	movs	r0, r0
    5f74:	e008      	b.n	5f88 <moncleanup+0x444>
    5f76:	6843      	ldr	r3, [r0, #4]
    5f78:	4299      	cmp	r1, r3
    5f7a:	d304      	bcc.n	5f86 <moncleanup+0x442>
    5f7c:	6882      	ldr	r2, [r0, #8]
    5f7e:	4291      	cmp	r1, r2
    5f80:	d801      	bhi.n	5f86 <moncleanup+0x442>
    5f82:	1ac9      	subs	r1, r1, r3
    5f84:	e002      	b.n	5f8c <moncleanup+0x448>
    5f86:	68c0      	ldr	r0, [r0, #12]
    5f88:	2800      	cmp	r0, #0
    5f8a:	d1f4      	bne.n	5f76 <moncleanup+0x432>
    5f8c:	4608      	mov	r0, r1
    5f8e:	4770      	bx	lr

00005f90 <__aeabi_uidiv>:
    5f90:	e2512001 	subs	r2, r1, #1
    5f94:	012fff1e 	bxeq	lr
    5f98:	3a000023 	bcc	602c <__aeabi_uidiv+0x9c>
    5f9c:	e1500001 	cmp	r0, r1
    5fa0:	9a00001a 	bls	6010 <__aeabi_uidiv+0x80>
    5fa4:	e1110002 	tst	r1, r2
    5fa8:	0a00001b 	beq	601c <__aeabi_uidiv+0x8c>
    5fac:	e16f3f11 	clz	r3, r1
    5fb0:	e16f2f10 	clz	r2, r0
    5fb4:	e0432002 	sub	r2, r3, r2
    5fb8:	e3a03001 	mov	r3, #1
    5fbc:	e1a01211 	lsl	r1, r1, r2
    5fc0:	e1a03213 	lsl	r3, r3, r2
    5fc4:	e3a02000 	mov	r2, #0
    5fc8:	e1500001 	cmp	r0, r1
    5fcc:	20400001 	subcs	r0, r0, r1
    5fd0:	21822003 	orrcs	r2, r2, r3
    5fd4:	e15000a1 	cmp	r0, r1, lsr #1
    5fd8:	204000a1 	subcs	r0, r0, r1, lsr #1
    5fdc:	218220a3 	orrcs	r2, r2, r3, lsr #1
    5fe0:	e1500121 	cmp	r0, r1, lsr #2
    5fe4:	20400121 	subcs	r0, r0, r1, lsr #2
    5fe8:	21822123 	orrcs	r2, r2, r3, lsr #2
    5fec:	e15001a1 	cmp	r0, r1, lsr #3
    5ff0:	204001a1 	subcs	r0, r0, r1, lsr #3
    5ff4:	218221a3 	orrcs	r2, r2, r3, lsr #3
    5ff8:	e3500000 	cmp	r0, #0
    5ffc:	11b03223 	lsrsne	r3, r3, #4
    6000:	11a01221 	lsrne	r1, r1, #4
    6004:	1affffef 	bne	5fc8 <__aeabi_uidiv+0x38>
    6008:	e1a00002 	mov	r0, r2
    600c:	e12fff1e 	bx	lr
    6010:	03a00001 	moveq	r0, #1
    6014:	13a00000 	movne	r0, #0
    6018:	e12fff1e 	bx	lr
    601c:	e16f2f11 	clz	r2, r1
    6020:	e262201f 	rsb	r2, r2, #31
    6024:	e1a00230 	lsr	r0, r0, r2
    6028:	e12fff1e 	bx	lr
    602c:	e3500000 	cmp	r0, #0
    6030:	13e00000 	mvnne	r0, #0
    6034:	ea000046 	b	6154 <__aeabi_idiv0>

00006038 <__aeabi_uidivmod>:
    6038:	e3510000 	cmp	r1, #0
    603c:	0afffffa 	beq	602c <__aeabi_uidiv+0x9c>
    6040:	e92d4003 	push	{r0, r1, lr}
    6044:	ebffffd1 	bl	5f90 <__aeabi_uidiv>
    6048:	e8bd4006 	pop	{r1, r2, lr}
    604c:	e0030092 	mul	r3, r2, r0
    6050:	e0411003 	sub	r1, r1, r3
    6054:	e12fff1e 	bx	lr

00006058 <__aeabi_idiv>:
    6058:	e3510000 	cmp	r1, #0
    605c:	0a000030 	beq	6124 <__aeabi_idiv+0xcc>
    6060:	e020c001 	eor	ip, r0, r1
    6064:	42611000 	rsbmi	r1, r1, #0
    6068:	e2512001 	subs	r2, r1, #1
    606c:	0a00001f 	beq	60f0 <__aeabi_idiv+0x98>
    6070:	e1b03000 	movs	r3, r0
    6074:	42603000 	rsbmi	r3, r0, #0
    6078:	e1530001 	cmp	r3, r1
    607c:	9a00001e 	bls	60fc <__aeabi_idiv+0xa4>
    6080:	e1110002 	tst	r1, r2
    6084:	0a000020 	beq	610c <__aeabi_idiv+0xb4>
    6088:	e16f2f11 	clz	r2, r1
    608c:	e16f0f13 	clz	r0, r3
    6090:	e0420000 	sub	r0, r2, r0
    6094:	e3a02001 	mov	r2, #1
    6098:	e1a01011 	lsl	r1, r1, r0
    609c:	e1a02012 	lsl	r2, r2, r0
    60a0:	e3a00000 	mov	r0, #0
    60a4:	e1530001 	cmp	r3, r1
    60a8:	20433001 	subcs	r3, r3, r1
    60ac:	21800002 	orrcs	r0, r0, r2
    60b0:	e15300a1 	cmp	r3, r1, lsr #1
    60b4:	204330a1 	subcs	r3, r3, r1, lsr #1
    60b8:	218000a2 	orrcs	r0, r0, r2, lsr #1
    60bc:	e1530121 	cmp	r3, r1, lsr #2
    60c0:	20433121 	subcs	r3, r3, r1, lsr #2
    60c4:	21800122 	orrcs	r0, r0, r2, lsr #2
    60c8:	e15301a1 	cmp	r3, r1, lsr #3
    60cc:	204331a1 	subcs	r3, r3, r1, lsr #3
    60d0:	218001a2 	orrcs	r0, r0, r2, lsr #3
    60d4:	e3530000 	cmp	r3, #0
    60d8:	11b02222 	lsrsne	r2, r2, #4
    60dc:	11a01221 	lsrne	r1, r1, #4
    60e0:	1affffef 	bne	60a4 <__aeabi_idiv+0x4c>
    60e4:	e35c0000 	cmp	ip, #0
    60e8:	42600000 	rsbmi	r0, r0, #0
    60ec:	e12fff1e 	bx	lr
    60f0:	e13c0000 	teq	ip, r0
    60f4:	42600000 	rsbmi	r0, r0, #0
    60f8:	e12fff1e 	bx	lr
    60fc:	33a00000 	movcc	r0, #0
    6100:	01a00fcc 	asreq	r0, ip, #31
    6104:	03800001 	orreq	r0, r0, #1
    6108:	e12fff1e 	bx	lr
    610c:	e16f2f11 	clz	r2, r1
    6110:	e262201f 	rsb	r2, r2, #31
    6114:	e35c0000 	cmp	ip, #0
    6118:	e1a00233 	lsr	r0, r3, r2
    611c:	42600000 	rsbmi	r0, r0, #0
    6120:	e12fff1e 	bx	lr
    6124:	e3500000 	cmp	r0, #0
    6128:	c3e00102 	mvngt	r0, #-2147483648	; 0x80000000
    612c:	b3a00102 	movlt	r0, #-2147483648	; 0x80000000
    6130:	ea000007 	b	6154 <__aeabi_idiv0>

00006134 <__aeabi_idivmod>:
    6134:	e3510000 	cmp	r1, #0
    6138:	0afffff9 	beq	6124 <__aeabi_idiv+0xcc>
    613c:	e92d4003 	push	{r0, r1, lr}
    6140:	ebffffc6 	bl	6060 <__aeabi_idiv+0x8>
    6144:	e8bd4006 	pop	{r1, r2, lr}
    6148:	e0030092 	mul	r3, r2, r0
    614c:	e0411003 	sub	r1, r1, r3
    6150:	e12fff1e 	bx	lr

00006154 <__aeabi_idiv0>:
    6154:	e92d4002 	push	{r1, lr}
    6158:	e3a00008 	mov	r0, #8
    615c:	ebffef76 	bl	1f3c <raise@plt>
    6160:	e8bd8002 	pop	{r1, pc}
    6164:	e5903000 	ldr	r3, [r0]
    6168:	e3130101 	tst	r3, #1073741824	; 0x40000000
    616c:	13833102 	orrne	r3, r3, #-2147483648	; 0x80000000
    6170:	03c33102 	biceq	r3, r3, #-2147483648	; 0x80000000
    6174:	e0800003 	add	r0, r0, r3
    6178:	e12fff1e 	bx	lr
    617c:	e92d4ff0 	push	{r4, r5, r6, r7, r8, r9, sl, fp, lr}
    6180:	e1a04000 	mov	r4, r0
    6184:	e59f51a8 	ldr	r5, [pc, #424]	; 6334 <__aeabi_idiv0+0x1e0>
    6188:	e24dd014 	sub	sp, sp, #20
    618c:	e59f31a4 	ldr	r3, [pc, #420]	; 6338 <__aeabi_idiv0+0x1e4>
    6190:	e2416002 	sub	r6, r1, #2
    6194:	e08f5005 	add	r5, pc, r5
    6198:	e7953003 	ldr	r3, [r5, r3]
    619c:	e3530000 	cmp	r3, #0
    61a0:	0a000005 	beq	61bc <__aeabi_idiv0+0x68>
    61a4:	e1a00006 	mov	r0, r6
    61a8:	e28d100c 	add	r1, sp, #12
    61ac:	ebffef65 	bl	1f48 <__gnu_Unwind_Find_exidx@plt>
    61b0:	e2509000 	subs	r9, r0, #0
    61b4:	1a000007 	bne	61d8 <__aeabi_idiv0+0x84>
    61b8:	ea000056 	b	6318 <__aeabi_idiv0+0x1c4>
    61bc:	e59f3178 	ldr	r3, [pc, #376]	; 633c <__aeabi_idiv0+0x1e8>
    61c0:	e59f2178 	ldr	r2, [pc, #376]	; 6340 <__aeabi_idiv0+0x1ec>
    61c4:	e7953003 	ldr	r3, [r5, r3]
    61c8:	e7959002 	ldr	r9, [r5, r2]
    61cc:	e0693003 	rsb	r3, r9, r3
    61d0:	e1a031c3 	asr	r3, r3, #3
    61d4:	e58d300c 	str	r3, [sp, #12]
    61d8:	e59d300c 	ldr	r3, [sp, #12]
    61dc:	e3530000 	cmp	r3, #0
    61e0:	0a000021 	beq	626c <__aeabi_idiv0+0x118>
    61e4:	e2433001 	sub	r3, r3, #1
    61e8:	e3a0a000 	mov	sl, #0
    61ec:	e58d3004 	str	r3, [sp, #4]
    61f0:	e1a0b003 	mov	fp, r3
    61f4:	e08a700b 	add	r7, sl, fp
    61f8:	e0877fa7 	add	r7, r7, r7, lsr #31
    61fc:	e1a070c7 	asr	r7, r7, #1
    6200:	e0898187 	add	r8, r9, r7, lsl #3
    6204:	e1a00008 	mov	r0, r8
    6208:	ebffffd5 	bl	6164 <__aeabi_idiv0+0x10>
    620c:	e59d2004 	ldr	r2, [sp, #4]
    6210:	e1570002 	cmp	r7, r2
    6214:	e1a03000 	mov	r3, r0
    6218:	03e00000 	mvneq	r0, #0
    621c:	0a000005 	beq	6238 <__aeabi_idiv0+0xe4>
    6220:	e2870001 	add	r0, r7, #1
    6224:	e58d3000 	str	r3, [sp]
    6228:	e0890180 	add	r0, r9, r0, lsl #3
    622c:	ebffffcc 	bl	6164 <__aeabi_idiv0+0x10>
    6230:	e59d3000 	ldr	r3, [sp]
    6234:	e2400001 	sub	r0, r0, #1
    6238:	e1560003 	cmp	r6, r3
    623c:	2a000003 	bcs	6250 <__aeabi_idiv0+0xfc>
    6240:	e157000a 	cmp	r7, sl
    6244:	0a000008 	beq	626c <__aeabi_idiv0+0x118>
    6248:	e247b001 	sub	fp, r7, #1
    624c:	eaffffe8 	b	61f4 <__aeabi_idiv0+0xa0>
    6250:	e1560000 	cmp	r6, r0
    6254:	8a000002 	bhi	6264 <__aeabi_idiv0+0x110>
    6258:	e3580000 	cmp	r8, #0
    625c:	1a000006 	bne	627c <__aeabi_idiv0+0x128>
    6260:	ea000001 	b	626c <__aeabi_idiv0+0x118>
    6264:	e287a001 	add	sl, r7, #1
    6268:	eaffffe1 	b	61f4 <__aeabi_idiv0+0xa0>
    626c:	e3a03000 	mov	r3, #0
    6270:	e5843010 	str	r3, [r4, #16]
    6274:	e3a00009 	mov	r0, #9
    6278:	ea00002b 	b	632c <__aeabi_idiv0+0x1d8>
    627c:	e1a00008 	mov	r0, r8
    6280:	ebffffb7 	bl	6164 <__aeabi_idiv0+0x10>
    6284:	e5983004 	ldr	r3, [r8, #4]
    6288:	e3530001 	cmp	r3, #1
    628c:	03a03000 	moveq	r3, #0
    6290:	05843010 	streq	r3, [r4, #16]
    6294:	e5840048 	str	r0, [r4, #72]	; 0x48
    6298:	03a00005 	moveq	r0, #5
    629c:	0a000022 	beq	632c <__aeabi_idiv0+0x1d8>
    62a0:	e3530000 	cmp	r3, #0
    62a4:	e2880004 	add	r0, r8, #4
    62a8:	b584004c 	strlt	r0, [r4, #76]	; 0x4c
    62ac:	b3a03001 	movlt	r3, #1
    62b0:	ba000002 	blt	62c0 <__aeabi_idiv0+0x16c>
    62b4:	ebffffaa 	bl	6164 <__aeabi_idiv0+0x10>
    62b8:	e3a03000 	mov	r3, #0
    62bc:	e584004c 	str	r0, [r4, #76]	; 0x4c
    62c0:	e594004c 	ldr	r0, [r4, #76]	; 0x4c
    62c4:	e5843050 	str	r3, [r4, #80]	; 0x50
    62c8:	e5903000 	ldr	r3, [r0]
    62cc:	e3530000 	cmp	r3, #0
    62d0:	aa000012 	bge	6320 <__aeabi_idiv0+0x1cc>
    62d4:	e7e33c53 	ubfx	r3, r3, #24, #4
    62d8:	e3530000 	cmp	r3, #0
    62dc:	059f2060 	ldreq	r2, [pc, #96]	; 6344 <__aeabi_idiv0+0x1f0>
    62e0:	01a00003 	moveq	r0, r3
    62e4:	07952002 	ldreq	r2, [r5, r2]
    62e8:	05842010 	streq	r2, [r4, #16]
    62ec:	0a00000e 	beq	632c <__aeabi_idiv0+0x1d8>
    62f0:	e3530001 	cmp	r3, #1
    62f4:	e3a00000 	mov	r0, #0
    62f8:	059f3048 	ldreq	r3, [pc, #72]	; 6348 <__aeabi_idiv0+0x1f4>
    62fc:	0a000002 	beq	630c <__aeabi_idiv0+0x1b8>
    6300:	e3530002 	cmp	r3, #2
    6304:	1a000003 	bne	6318 <__aeabi_idiv0+0x1c4>
    6308:	e59f303c 	ldr	r3, [pc, #60]	; 634c <__aeabi_idiv0+0x1f8>
    630c:	e7953003 	ldr	r3, [r5, r3]
    6310:	e5843010 	str	r3, [r4, #16]
    6314:	ea000004 	b	632c <__aeabi_idiv0+0x1d8>
    6318:	e5840010 	str	r0, [r4, #16]
    631c:	eaffffd4 	b	6274 <__aeabi_idiv0+0x120>
    6320:	ebffff8f 	bl	6164 <__aeabi_idiv0+0x10>
    6324:	e5840010 	str	r0, [r4, #16]
    6328:	e3a00000 	mov	r0, #0
    632c:	e28dd014 	add	sp, sp, #20
    6330:	e8bd8ff0 	pop	{r4, r5, r6, r7, r8, r9, sl, fp, pc}
    6334:	00002dcc 	andeq	r2, r0, ip, asr #27
    6338:	ffffffe4 			; <UNDEFINED> instruction: 0xffffffe4
    633c:	ffffffe8 			; <UNDEFINED> instruction: 0xffffffe8
    6340:	ffffffec 			; <UNDEFINED> instruction: 0xffffffec
    6344:	fffffff0 			; <UNDEFINED> instruction: 0xfffffff0
    6348:	fffffff4 			; <UNDEFINED> instruction: 0xfffffff4
    634c:	fffffff8 			; <UNDEFINED> instruction: 0xfffffff8
    6350:	e5903000 	ldr	r3, [r0]
    6354:	e92d4010 	push	{r4, lr}
    6358:	e3130001 	tst	r3, #1
    635c:	e1a04000 	mov	r4, r0
    6360:	1a000005 	bne	637c <__aeabi_idiv0+0x228>
    6364:	e3130002 	tst	r3, #2
    6368:	e2800048 	add	r0, r0, #72	; 0x48
    636c:	0a000001 	beq	6378 <__aeabi_idiv0+0x224>
    6370:	eb0002f7 	bl	6f54 <__gnu_Unwind_Restore_VFP_D>
    6374:	ea000000 	b	637c <__aeabi_idiv0+0x228>
    6378:	eb0002f1 	bl	6f44 <__gnu_Unwind_Restore_VFP>
    637c:	e5943000 	ldr	r3, [r4]
    6380:	e3130004 	tst	r3, #4
    6384:	1a000001 	bne	6390 <__aeabi_idiv0+0x23c>
    6388:	e28400d0 	add	r0, r4, #208	; 0xd0
    638c:	eb0002f4 	bl	6f64 <__gnu_Unwind_Restore_VFP_D_16_to_31>
    6390:	e5943000 	ldr	r3, [r4]
    6394:	e3130008 	tst	r3, #8
    6398:	1a000001 	bne	63a4 <__aeabi_idiv0+0x250>
    639c:	e2840e1b 	add	r0, r4, #432	; 0x1b0
    63a0:	eb0002f3 	bl	6f74 <__gnu_Unwind_Restore_WMMXD>
    63a4:	e5943000 	ldr	r3, [r4]
    63a8:	e3130010 	tst	r3, #16
    63ac:	18bd8010 	popne	{r4, pc}
    63b0:	e2840e23 	add	r0, r4, #560	; 0x230
    63b4:	e8bd4010 	pop	{r4, lr}
    63b8:	ea00030f 	b	6ffc <__gnu_Unwind_Restore_WMMXC>
    63bc:	e92d47f0 	push	{r4, r5, r6, r7, r8, r9, sl, lr}
    63c0:	e281e004 	add	lr, r1, #4
    63c4:	e590800c 	ldr	r8, [r0, #12]
    63c8:	e1a04000 	mov	r4, r0
    63cc:	e5909018 	ldr	r9, [r0, #24]
    63d0:	e1a05002 	mov	r5, r2
    63d4:	e8be000f 	ldm	lr!, {r0, r1, r2, r3}
    63d8:	e24ddd12 	sub	sp, sp, #1152	; 0x480
    63dc:	e24dd008 	sub	sp, sp, #8
    63e0:	e3a07000 	mov	r7, #0
    63e4:	e28dc00c 	add	ip, sp, #12
    63e8:	e28d6008 	add	r6, sp, #8
    63ec:	e8ac000f 	stmia	ip!, {r0, r1, r2, r3}
    63f0:	e8be000f 	ldm	lr!, {r0, r1, r2, r3}
    63f4:	e8ac000f 	stmia	ip!, {r0, r1, r2, r3}
    63f8:	e8be000f 	ldm	lr!, {r0, r1, r2, r3}
    63fc:	e8ac000f 	stmia	ip!, {r0, r1, r2, r3}
    6400:	e89e000f 	ldm	lr, {r0, r1, r2, r3}
    6404:	e88c000f 	stm	ip, {r0, r1, r2, r3}
    6408:	e58d7008 	str	r7, [sp, #8]
    640c:	e1a00004 	mov	r0, r4
    6410:	e59d1048 	ldr	r1, [sp, #72]	; 0x48
    6414:	ebffff58 	bl	617c <__aeabi_idiv0+0x28>
    6418:	e3550000 	cmp	r5, #0
    641c:	13a0a00a 	movne	sl, #10
    6420:	03a0a009 	moveq	sl, #9
    6424:	e2505000 	subs	r5, r0, #0
    6428:	138aa010 	orrne	sl, sl, #16
    642c:	159d3040 	ldrne	r3, [sp, #64]	; 0x40
    6430:	1a00000c 	bne	6468 <__aeabi_idiv0+0x314>
    6434:	e59d3048 	ldr	r3, [sp, #72]	; 0x48
    6438:	e1a01006 	mov	r1, r6
    643c:	e3a02d09 	mov	r2, #576	; 0x240
    6440:	e28d0f92 	add	r0, sp, #584	; 0x248
    6444:	e5843014 	str	r3, [r4, #20]
    6448:	ebffee7f 	bl	1e4c <memcpy@plt>
    644c:	e5943010 	ldr	r3, [r4, #16]
    6450:	e1a0000a 	mov	r0, sl
    6454:	e1a01004 	mov	r1, r4
    6458:	e28d2f92 	add	r2, sp, #584	; 0x248
    645c:	e12fff33 	blx	r3
    6460:	e59d3280 	ldr	r3, [sp, #640]	; 0x280
    6464:	e1a07000 	mov	r7, r0
    6468:	e58d304c 	str	r3, [sp, #76]	; 0x4c
    646c:	e3a00001 	mov	r0, #1
    6470:	e88d0240 	stm	sp, {r6, r9}
    6474:	e1a0100a 	mov	r1, sl
    6478:	e1a02004 	mov	r2, r4
    647c:	e1a03004 	mov	r3, r4
    6480:	e12fff38 	blx	r8
    6484:	e3500000 	cmp	r0, #0
    6488:	1a00000b 	bne	64bc <__aeabi_idiv0+0x368>
    648c:	e3550000 	cmp	r5, #0
    6490:	1a00000a 	bne	64c0 <__aeabi_idiv0+0x36c>
    6494:	e1a00006 	mov	r0, r6
    6498:	e28d1f92 	add	r1, sp, #584	; 0x248
    649c:	e3a02d09 	mov	r2, #576	; 0x240
    64a0:	ebffee69 	bl	1e4c <memcpy@plt>
    64a4:	e3570008 	cmp	r7, #8
    64a8:	0affffd7 	beq	640c <__aeabi_idiv0+0x2b8>
    64ac:	e3570007 	cmp	r7, #7
    64b0:	1a000001 	bne	64bc <__aeabi_idiv0+0x368>
    64b4:	e2860004 	add	r0, r6, #4
    64b8:	eb00029c 	bl	6f30 <__restore_core_regs>
    64bc:	e3a05009 	mov	r5, #9
    64c0:	e1a00005 	mov	r0, r5
    64c4:	e28dd088 	add	sp, sp, #136	; 0x88
    64c8:	e28ddb01 	add	sp, sp, #1024	; 0x400
    64cc:	e8bd87f0 	pop	{r4, r5, r6, r7, r8, r9, sl, pc}
    64d0:	e92d4038 	push	{r3, r4, r5, lr}
    64d4:	e1a05000 	mov	r5, r0
    64d8:	e1a04001 	mov	r4, r1
    64dc:	e1a00005 	mov	r0, r5
    64e0:	e5941040 	ldr	r1, [r4, #64]	; 0x40
    64e4:	ebffff24 	bl	617c <__aeabi_idiv0+0x28>
    64e8:	e3500000 	cmp	r0, #0
    64ec:	1a00000a 	bne	651c <__aeabi_idiv0+0x3c8>
    64f0:	e5943040 	ldr	r3, [r4, #64]	; 0x40
    64f4:	e3a00001 	mov	r0, #1
    64f8:	e1a01005 	mov	r1, r5
    64fc:	e1a02004 	mov	r2, r4
    6500:	e5853014 	str	r3, [r5, #20]
    6504:	e5953010 	ldr	r3, [r5, #16]
    6508:	e12fff33 	blx	r3
    650c:	e3500008 	cmp	r0, #8
    6510:	0afffff1 	beq	64dc <__aeabi_idiv0+0x388>
    6514:	e3500007 	cmp	r0, #7
    6518:	0a000000 	beq	6520 <__aeabi_idiv0+0x3cc>
    651c:	ebffee8c 	bl	1f54 <abort@plt>
    6520:	e2840004 	add	r0, r4, #4
    6524:	eb000281 	bl	6f30 <__restore_core_regs>

00006528 <_Unwind_VRS_Get>:
    6528:	e3510000 	cmp	r1, #0
    652c:	0a000003 	beq	6540 <_Unwind_VRS_Get+0x18>
    6530:	e3510004 	cmp	r1, #4
    6534:	83a00002 	movhi	r0, #2
    6538:	93a00001 	movls	r0, #1
    653c:	e12fff1e 	bx	lr
    6540:	e352000f 	cmp	r2, #15
    6544:	93530000 	cmpls	r3, #0
    6548:	00800102 	addeq	r0, r0, r2, lsl #2
    654c:	059d2000 	ldreq	r2, [sp]
    6550:	03a03000 	moveq	r3, #0
    6554:	13a03001 	movne	r3, #1
    6558:	05901004 	ldreq	r1, [r0, #4]
    655c:	13a00002 	movne	r0, #2
    6560:	01a00003 	moveq	r0, r3
    6564:	05821000 	streq	r1, [r2]
    6568:	e12fff1e 	bx	lr
    656c:	e92d401f 	push	{r0, r1, r2, r3, r4, lr}
    6570:	e1a02001 	mov	r2, r1
    6574:	e3a01000 	mov	r1, #0
    6578:	e28d300c 	add	r3, sp, #12
    657c:	e58d3000 	str	r3, [sp]
    6580:	e1a03001 	mov	r3, r1
    6584:	ebffffe7 	bl	6528 <_Unwind_VRS_Get>
    6588:	e59d000c 	ldr	r0, [sp, #12]
    658c:	e28dd014 	add	sp, sp, #20
    6590:	e8bd8000 	ldmfd	sp!, {pc}

00006594 <_Unwind_VRS_Set>:
    6594:	e3510000 	cmp	r1, #0
    6598:	0a000003 	beq	65ac <_Unwind_VRS_Set+0x18>
    659c:	e3510004 	cmp	r1, #4
    65a0:	83a00002 	movhi	r0, #2
    65a4:	93a00001 	movls	r0, #1
    65a8:	e12fff1e 	bx	lr
    65ac:	e352000f 	cmp	r2, #15
    65b0:	93530000 	cmpls	r3, #0
    65b4:	00800102 	addeq	r0, r0, r2, lsl #2
    65b8:	059d1000 	ldreq	r1, [sp]
    65bc:	03a03000 	moveq	r3, #0
    65c0:	13a03001 	movne	r3, #1
    65c4:	13a00002 	movne	r0, #2
    65c8:	05911000 	ldreq	r1, [r1]
    65cc:	05801004 	streq	r1, [r0, #4]
    65d0:	01a00003 	moveq	r0, r3
    65d4:	e12fff1e 	bx	lr
    65d8:	e92d401f 	push	{r0, r1, r2, r3, r4, lr}
    65dc:	e1a03001 	mov	r3, r1
    65e0:	e28d1010 	add	r1, sp, #16
    65e4:	e5212004 	str	r2, [r1, #-4]!
    65e8:	e1a02003 	mov	r2, r3
    65ec:	e58d1000 	str	r1, [sp]
    65f0:	e3a01000 	mov	r1, #0
    65f4:	e1a03001 	mov	r3, r1
    65f8:	ebffffe5 	bl	6594 <_Unwind_VRS_Set>
    65fc:	e28dd014 	add	sp, sp, #20
    6600:	e8bd8000 	ldmfd	sp!, {pc}
    6604:	e92d4ff0 	push	{r4, r5, r6, r7, r8, r9, sl, fp, lr}
    6608:	e1a04001 	mov	r4, r1
    660c:	e594704c 	ldr	r7, [r4, #76]	; 0x4c
    6610:	e1a06002 	mov	r6, r2
    6614:	e24dd024 	sub	sp, sp, #36	; 0x24
    6618:	e3530000 	cmp	r3, #0
    661c:	e2001008 	and	r1, r0, #8
    6620:	e2008003 	and	r8, r0, #3
    6624:	e4972004 	ldr	r2, [r7], #4
    6628:	e58d100c 	str	r1, [sp, #12]
    662c:	e58d3004 	str	r3, [sp, #4]
    6630:	e58d7018 	str	r7, [sp, #24]
    6634:	1a000005 	bne	6650 <_Unwind_VRS_Set+0xbc>
    6638:	e1a02402 	lsl	r2, r2, #8
    663c:	e5cd301d 	strb	r3, [sp, #29]
    6640:	e58d2014 	str	r2, [sp, #20]
    6644:	e3a03003 	mov	r3, #3
    6648:	e5cd301c 	strb	r3, [sp, #28]
    664c:	ea000006 	b	666c <_Unwind_VRS_Set+0xd8>
    6650:	e7e73852 	ubfx	r3, r2, #16, #8
    6654:	e1a02802 	lsl	r2, r2, #16
    6658:	e5cd301d 	strb	r3, [sp, #29]
    665c:	e0877103 	add	r7, r7, r3, lsl #2
    6660:	e58d2014 	str	r2, [sp, #20]
    6664:	e3a02002 	mov	r2, #2
    6668:	e5cd201c 	strb	r2, [sp, #28]
    666c:	e3580002 	cmp	r8, #2
    6670:	e5949050 	ldr	r9, [r4, #80]	; 0x50
    6674:	05947038 	ldreq	r7, [r4, #56]	; 0x38
    6678:	e2199001 	ands	r9, r9, #1
    667c:	13a09000 	movne	r9, #0
    6680:	0a0000a4 	beq	6918 <_Unwind_VRS_Set+0x384>
    6684:	ea0000a8 	b	692c <_Unwind_VRS_Set+0x398>
    6688:	e59d2004 	ldr	r2, [sp, #4]
    668c:	e1a00006 	mov	r0, r6
    6690:	e5943048 	ldr	r3, [r4, #72]	; 0x48
    6694:	e3a0100f 	mov	r1, #15
    6698:	e3520002 	cmp	r2, #2
    669c:	02875008 	addeq	r5, r7, #8
    66a0:	12875004 	addne	r5, r7, #4
    66a4:	0597b004 	ldreq	fp, [r7, #4]
    66a8:	11d7b0b2 	ldrhne	fp, [r7, #2]
    66ac:	11d7a0b0 	ldrhne	sl, [r7]
    66b0:	e3cb7001 	bic	r7, fp, #1
    66b4:	e0877003 	add	r7, r7, r3
    66b8:	ebffffab 	bl	656c <_Unwind_VRS_Get+0x44>
    66bc:	e1570000 	cmp	r7, r0
    66c0:	83a00000 	movhi	r0, #0
    66c4:	8a000004 	bhi	66dc <_Unwind_VRS_Set+0x148>
    66c8:	e3ca3001 	bic	r3, sl, #1
    66cc:	e0877003 	add	r7, r7, r3
    66d0:	e1500007 	cmp	r0, r7
    66d4:	23a00000 	movcs	r0, #0
    66d8:	33a00001 	movcc	r0, #1
    66dc:	e20bb001 	and	fp, fp, #1
    66e0:	e20aa001 	and	sl, sl, #1
    66e4:	e18aa08b 	orr	sl, sl, fp, lsl #1
    66e8:	e35a0001 	cmp	sl, #1
    66ec:	0a000015 	beq	6748 <_Unwind_VRS_Set+0x1b4>
    66f0:	3a000002 	bcc	6700 <_Unwind_VRS_Set+0x16c>
    66f4:	e35a0002 	cmp	sl, #2
    66f8:	1a0000a1 	bne	6984 <_Unwind_VRS_Set+0x3f0>
    66fc:	ea000036 	b	67dc <_Unwind_VRS_Set+0x248>
    6700:	e3580000 	cmp	r8, #0
    6704:	03a00000 	moveq	r0, #0
    6708:	12000001 	andne	r0, r0, #1
    670c:	e2857004 	add	r7, r5, #4
    6710:	e3500000 	cmp	r0, #0
    6714:	0a000081 	beq	6920 <_Unwind_VRS_Set+0x38c>
    6718:	e1a00005 	mov	r0, r5
    671c:	ebfffe90 	bl	6164 <__aeabi_idiv0+0x10>
    6720:	e5847038 	str	r7, [r4, #56]	; 0x38
    6724:	e1a05000 	mov	r5, r0
    6728:	e1a00004 	mov	r0, r4
    672c:	ebffee0b 	bl	1f60 <__cxa_begin_cleanup@plt>
    6730:	e3500000 	cmp	r0, #0
    6734:	11a00006 	movne	r0, r6
    6738:	13a0100f 	movne	r1, #15
    673c:	11a02005 	movne	r2, r5
    6740:	0a00008f 	beq	6984 <_Unwind_VRS_Set+0x3f0>
    6744:	ea00008b 	b	6978 <_Unwind_VRS_Set+0x3e4>
    6748:	e3580000 	cmp	r8, #0
    674c:	1a000016 	bne	67ac <_Unwind_VRS_Set+0x218>
    6750:	e3500000 	cmp	r0, #0
    6754:	0a00001e 	beq	67d4 <_Unwind_VRS_Set+0x240>
    6758:	e895000c 	ldm	r5, {r2, r3}
    675c:	e3730002 	cmn	r3, #2
    6760:	0a000087 	beq	6984 <_Unwind_VRS_Set+0x3f0>
    6764:	e59d1008 	ldr	r1, [sp, #8]
    6768:	e3730001 	cmn	r3, #1
    676c:	e58d1010 	str	r1, [sp, #16]
    6770:	0a000009 	beq	679c <_Unwind_VRS_Set+0x208>
    6774:	e3530000 	cmp	r3, #0
    6778:	e1a00004 	mov	r0, r4
    677c:	10853003 	addne	r3, r5, r3
    6780:	e1a02fa2 	lsr	r2, r2, #31
    6784:	01a01008 	moveq	r1, r8
    6788:	15931004 	ldrne	r1, [r3, #4]
    678c:	e28d3010 	add	r3, sp, #16
    6790:	ebffedf5 	bl	1f6c <__cxa_type_match@plt>
    6794:	e3500000 	cmp	r0, #0
    6798:	058d0010 	streq	r0, [sp, #16]
    679c:	e59d3010 	ldr	r3, [sp, #16]
    67a0:	e3530000 	cmp	r3, #0
    67a4:	0a00000a 	beq	67d4 <_Unwind_VRS_Set+0x240>
    67a8:	ea00002c 	b	6860 <_Unwind_VRS_Set+0x2cc>
    67ac:	e1a00006 	mov	r0, r6
    67b0:	e3a0100d 	mov	r1, #13
    67b4:	e5947020 	ldr	r7, [r4, #32]
    67b8:	ebffff6b 	bl	656c <_Unwind_VRS_Get+0x44>
    67bc:	e1570000 	cmp	r7, r0
    67c0:	1a000003 	bne	67d4 <_Unwind_VRS_Set+0x240>
    67c4:	e5943028 	ldr	r3, [r4, #40]	; 0x28
    67c8:	e1550003 	cmp	r5, r3
    67cc:	01a00005 	moveq	r0, r5
    67d0:	0a000040 	beq	68d8 <_Unwind_VRS_Set+0x344>
    67d4:	e2857008 	add	r7, r5, #8
    67d8:	ea000050 	b	6920 <_Unwind_VRS_Set+0x38c>
    67dc:	e5957000 	ldr	r7, [r5]
    67e0:	e3580000 	cmp	r8, #0
    67e4:	e3c77102 	bic	r7, r7, #-2147483648	; 0x80000000
    67e8:	1a000025 	bne	6884 <_Unwind_VRS_Set+0x2f0>
    67ec:	e3500000 	cmp	r0, #0
    67f0:	0a000042 	beq	6900 <_Unwind_VRS_Set+0x36c>
    67f4:	e59d200c 	ldr	r2, [sp, #12]
    67f8:	e3520000 	cmp	r2, #0
    67fc:	13570000 	cmpne	r7, #0
    6800:	01a0b005 	moveq	fp, r5
    6804:	01a0a008 	moveq	sl, r8
    6808:	0a000012 	beq	6858 <_Unwind_VRS_Set+0x2c4>
    680c:	ea00003b 	b	6900 <_Unwind_VRS_Set+0x36c>
    6810:	e5bb1004 	ldr	r1, [fp, #4]!
    6814:	e1a00004 	mov	r0, r4
    6818:	e59d3008 	ldr	r3, [sp, #8]
    681c:	e3a02000 	mov	r2, #0
    6820:	e3510000 	cmp	r1, #0
    6824:	e28ac001 	add	ip, sl, #1
    6828:	1791100b 	ldrne	r1, [r1, fp]
    682c:	e58d3010 	str	r3, [sp, #16]
    6830:	e28d3010 	add	r3, sp, #16
    6834:	e58dc000 	str	ip, [sp]
    6838:	ebffedcb 	bl	1f6c <__cxa_type_match@plt>
    683c:	e59dc000 	ldr	ip, [sp]
    6840:	e3500000 	cmp	r0, #0
    6844:	0a000002 	beq	6854 <_Unwind_VRS_Set+0x2c0>
    6848:	e15a0007 	cmp	sl, r7
    684c:	1a00002b 	bne	6900 <_Unwind_VRS_Set+0x36c>
    6850:	ea000002 	b	6860 <_Unwind_VRS_Set+0x2cc>
    6854:	e1a0a00c 	mov	sl, ip
    6858:	e15a0007 	cmp	sl, r7
    685c:	1affffeb 	bne	6810 <_Unwind_VRS_Set+0x27c>
    6860:	e1a00006 	mov	r0, r6
    6864:	e3a0100d 	mov	r1, #13
    6868:	ebffff3f 	bl	656c <_Unwind_VRS_Get+0x44>
    686c:	e59d3010 	ldr	r3, [sp, #16]
    6870:	e5845028 	str	r5, [r4, #40]	; 0x28
    6874:	e5843024 	str	r3, [r4, #36]	; 0x24
    6878:	e5840020 	str	r0, [r4, #32]
    687c:	e3a00006 	mov	r0, #6
    6880:	ea000040 	b	6988 <_Unwind_VRS_Set+0x3f4>
    6884:	e1a00006 	mov	r0, r6
    6888:	e3a0100d 	mov	r1, #13
    688c:	e594a020 	ldr	sl, [r4, #32]
    6890:	ebffff35 	bl	656c <_Unwind_VRS_Get+0x44>
    6894:	e15a0000 	cmp	sl, r0
    6898:	1a000018 	bne	6900 <_Unwind_VRS_Set+0x36c>
    689c:	e5943028 	ldr	r3, [r4, #40]	; 0x28
    68a0:	e1550003 	cmp	r5, r3
    68a4:	1a000015 	bne	6900 <_Unwind_VRS_Set+0x36c>
    68a8:	e3a01000 	mov	r1, #0
    68ac:	e3a03004 	mov	r3, #4
    68b0:	e5847028 	str	r7, [r4, #40]	; 0x28
    68b4:	e5843030 	str	r3, [r4, #48]	; 0x30
    68b8:	e0853003 	add	r3, r5, r3
    68bc:	e584102c 	str	r1, [r4, #44]	; 0x2c
    68c0:	e5843034 	str	r3, [r4, #52]	; 0x34
    68c4:	e5953000 	ldr	r3, [r5]
    68c8:	e1530001 	cmp	r3, r1
    68cc:	ba00000a 	blt	68fc <_Unwind_VRS_Set+0x368>
    68d0:	e2870001 	add	r0, r7, #1
    68d4:	e0850100 	add	r0, r5, r0, lsl #2
    68d8:	ebfffe21 	bl	6164 <__aeabi_idiv0+0x10>
    68dc:	e3a0100f 	mov	r1, #15
    68e0:	e1a02000 	mov	r2, r0
    68e4:	e1a00006 	mov	r0, r6
    68e8:	ebffff3a 	bl	65d8 <_Unwind_VRS_Set+0x44>
    68ec:	e1a00006 	mov	r0, r6
    68f0:	e3a01000 	mov	r1, #0
    68f4:	e1a02004 	mov	r2, r4
    68f8:	ea00001e 	b	6978 <_Unwind_VRS_Set+0x3e4>
    68fc:	e3a09001 	mov	r9, #1
    6900:	e5953000 	ldr	r3, [r5]
    6904:	e2877001 	add	r7, r7, #1
    6908:	e3530000 	cmp	r3, #0
    690c:	b2855004 	addlt	r5, r5, #4
    6910:	e0857107 	add	r7, r5, r7, lsl #2
    6914:	ea000001 	b	6920 <_Unwind_VRS_Set+0x38c>
    6918:	e2842058 	add	r2, r4, #88	; 0x58
    691c:	e58d2008 	str	r2, [sp, #8]
    6920:	e597a000 	ldr	sl, [r7]
    6924:	e35a0000 	cmp	sl, #0
    6928:	1affff56 	bne	6688 <_Unwind_VRS_Set+0xf4>
    692c:	e1a00006 	mov	r0, r6
    6930:	e28d1014 	add	r1, sp, #20
    6934:	eb0001fd 	bl	7130 <__gnu_unwind_execute>
    6938:	e3500000 	cmp	r0, #0
    693c:	1a000010 	bne	6984 <_Unwind_VRS_Set+0x3f0>
    6940:	e3590000 	cmp	r9, #0
    6944:	03a00008 	moveq	r0, #8
    6948:	0a00000e 	beq	6988 <_Unwind_VRS_Set+0x3f4>
    694c:	e3a0100f 	mov	r1, #15
    6950:	e1a00006 	mov	r0, r6
    6954:	ebffff04 	bl	656c <_Unwind_VRS_Get+0x44>
    6958:	e3a0100e 	mov	r1, #14
    695c:	e1a02000 	mov	r2, r0
    6960:	e1a00006 	mov	r0, r6
    6964:	ebffff1b 	bl	65d8 <_Unwind_VRS_Set+0x44>
    6968:	e59f2020 	ldr	r2, [pc, #32]	; 6990 <_Unwind_VRS_Set+0x3fc>
    696c:	e1a00006 	mov	r0, r6
    6970:	e3a0100f 	mov	r1, #15
    6974:	e79f2002 	ldr	r2, [pc, r2]
    6978:	ebffff16 	bl	65d8 <_Unwind_VRS_Set+0x44>
    697c:	e3a00007 	mov	r0, #7
    6980:	ea000000 	b	6988 <_Unwind_VRS_Set+0x3f4>
    6984:	e3a00009 	mov	r0, #9
    6988:	e28dd024 	add	sp, sp, #36	; 0x24
    698c:	e8bd8ff0 	pop	{r4, r5, r6, r7, r8, r9, sl, fp, pc}
    6990:	000025e8 	andeq	r2, r0, r8, ror #11

00006994 <__aeabi_unwind_cpp_pr2>:
    6994:	e3a03002 	mov	r3, #2
    6998:	eaffff19 	b	6604 <_Unwind_VRS_Set+0x70>

0000699c <__aeabi_unwind_cpp_pr1>:
    699c:	e3a03001 	mov	r3, #1
    69a0:	eaffff17 	b	6604 <_Unwind_VRS_Set+0x70>

000069a4 <__aeabi_unwind_cpp_pr0>:
    69a4:	e3a03000 	mov	r3, #0
    69a8:	eaffff15 	b	6604 <_Unwind_VRS_Set+0x70>

000069ac <_Unwind_VRS_Pop>:
    69ac:	e92d45f0 	push	{r4, r5, r6, r7, r8, sl, lr}
    69b0:	e1a04000 	mov	r4, r0
    69b4:	e24ddf67 	sub	sp, sp, #412	; 0x19c
    69b8:	e1a05002 	mov	r5, r2
    69bc:	e3510004 	cmp	r1, #4
    69c0:	908ff101 	addls	pc, pc, r1, lsl #2
    69c4:	ea0000c7 	b	6ce8 <_Unwind_VRS_Pop+0x33c>
    69c8:	ea000005 	b	69e4 <_Unwind_VRS_Pop+0x38>
    69cc:	ea000014 	b	6a24 <_Unwind_VRS_Pop+0x78>
    69d0:	ea000001 	b	69dc <_Unwind_VRS_Pop+0x30>
    69d4:	ea00008a 	b	6c04 <_Unwind_VRS_Pop+0x258>
    69d8:	ea0000a9 	b	6c84 <_Unwind_VRS_Pop+0x2d8>
    69dc:	e3a07001 	mov	r7, #1
    69e0:	ea0000c1 	b	6cec <_Unwind_VRS_Pop+0x340>
    69e4:	e3530000 	cmp	r3, #0
    69e8:	1a0000be 	bne	6ce8 <_Unwind_VRS_Pop+0x33c>
    69ec:	e6ff5072 	uxth	r5, r2
    69f0:	e5902038 	ldr	r2, [r0, #56]	; 0x38
    69f4:	e3a01001 	mov	r1, #1
    69f8:	e0150311 	ands	r0, r5, r1, lsl r3
    69fc:	10840103 	addne	r0, r4, r3, lsl #2
    6a00:	e2833001 	add	r3, r3, #1
    6a04:	1492c004 	ldrne	ip, [r2], #4
    6a08:	1580c004 	strne	ip, [r0, #4]
    6a0c:	e3530010 	cmp	r3, #16
    6a10:	1afffff8 	bne	69f8 <_Unwind_VRS_Pop+0x4c>
    6a14:	e2157a02 	ands	r7, r5, #8192	; 0x2000
    6a18:	05842038 	streq	r2, [r4, #56]	; 0x38
    6a1c:	0a0000b2 	beq	6cec <_Unwind_VRS_Pop+0x340>
    6a20:	ea0000ae 	b	6ce0 <_Unwind_VRS_Pop+0x334>
    6a24:	e2531005 	subs	r1, r3, #5
    6a28:	13a01001 	movne	r1, #1
    6a2c:	e3530001 	cmp	r3, #1
    6a30:	13530005 	cmpne	r3, #5
    6a34:	1a0000ab 	bne	6ce8 <_Unwind_VRS_Pop+0x33c>
    6a38:	e3530001 	cmp	r3, #1
    6a3c:	e1a06822 	lsr	r6, r2, #16
    6a40:	e6ff5072 	uxth	r5, r2
    6a44:	e0852006 	add	r2, r5, r6
    6a48:	13a00020 	movne	r0, #32
    6a4c:	03a00010 	moveq	r0, #16
    6a50:	e1520000 	cmp	r2, r0
    6a54:	8a0000a3 	bhi	6ce8 <_Unwind_VRS_Pop+0x33c>
    6a58:	e2430001 	sub	r0, r3, #1
    6a5c:	e2708000 	rsbs	r8, r0, #0
    6a60:	e0a88000 	adc	r8, r8, r0
    6a64:	e356000f 	cmp	r6, #15
    6a68:	93a0a000 	movls	sl, #0
    6a6c:	83a0a001 	movhi	sl, #1
    6a70:	e11a0008 	tst	sl, r8
    6a74:	1a00009b 	bne	6ce8 <_Unwind_VRS_Pop+0x33c>
    6a78:	e35a0000 	cmp	sl, #0
    6a7c:	11a0a005 	movne	sl, r5
    6a80:	1a000001 	bne	6a8c <_Unwind_VRS_Pop+0xe0>
    6a84:	e3520010 	cmp	r2, #16
    6a88:	8242a010 	subhi	sl, r2, #16
    6a8c:	e29a7000 	adds	r7, sl, #0
    6a90:	13a07001 	movne	r7, #1
    6a94:	e1170001 	tst	r7, r1
    6a98:	1a000092 	bne	6ce8 <_Unwind_VRS_Pop+0x33c>
    6a9c:	e356000f 	cmp	r6, #15
    6aa0:	8a00000e 	bhi	6ae0 <_Unwind_VRS_Pop+0x134>
    6aa4:	e5942000 	ldr	r2, [r4]
    6aa8:	e3120001 	tst	r2, #1
    6aac:	0a00000b 	beq	6ae0 <_Unwind_VRS_Pop+0x134>
    6ab0:	e3530005 	cmp	r3, #5
    6ab4:	e1a00004 	mov	r0, r4
    6ab8:	e3c21001 	bic	r1, r2, #1
    6abc:	e4801048 	str	r1, [r0], #72	; 0x48
    6ac0:	1a000003 	bne	6ad4 <_Unwind_VRS_Pop+0x128>
    6ac4:	e3811002 	orr	r1, r1, #2
    6ac8:	e5841000 	str	r1, [r4]
    6acc:	eb000122 	bl	6f5c <__gnu_Unwind_Save_VFP_D>
    6ad0:	ea000002 	b	6ae0 <_Unwind_VRS_Pop+0x134>
    6ad4:	e3c22003 	bic	r2, r2, #3
    6ad8:	e5842000 	str	r2, [r4]
    6adc:	eb00011a 	bl	6f4c <__gnu_Unwind_Save_VFP>
    6ae0:	e3570000 	cmp	r7, #0
    6ae4:	0a000006 	beq	6b04 <_Unwind_VRS_Pop+0x158>
    6ae8:	e5943000 	ldr	r3, [r4]
    6aec:	e3130004 	tst	r3, #4
    6af0:	0a000003 	beq	6b04 <_Unwind_VRS_Pop+0x158>
    6af4:	e1a00004 	mov	r0, r4
    6af8:	e3c33004 	bic	r3, r3, #4
    6afc:	e48030d0 	str	r3, [r0], #208	; 0xd0
    6b00:	eb000119 	bl	6f6c <__gnu_Unwind_Save_VFP_D_16_to_31>
    6b04:	e3580000 	cmp	r8, #0
    6b08:	0a000004 	beq	6b20 <_Unwind_VRS_Pop+0x174>
    6b0c:	e28d0e11 	add	r0, sp, #272	; 0x110
    6b10:	eb00010d 	bl	6f4c <__gnu_Unwind_Save_VFP>
    6b14:	e3570000 	cmp	r7, #0
    6b18:	1a000008 	bne	6b40 <_Unwind_VRS_Pop+0x194>
    6b1c:	ea000008 	b	6b44 <_Unwind_VRS_Pop+0x198>
    6b20:	e356000f 	cmp	r6, #15
    6b24:	8a000001 	bhi	6b30 <_Unwind_VRS_Pop+0x184>
    6b28:	e28d0e11 	add	r0, sp, #272	; 0x110
    6b2c:	eb00010a 	bl	6f5c <__gnu_Unwind_Save_VFP_D>
    6b30:	e3570000 	cmp	r7, #0
    6b34:	0a000002 	beq	6b44 <_Unwind_VRS_Pop+0x198>
    6b38:	e28d0010 	add	r0, sp, #16
    6b3c:	eb00010a 	bl	6f6c <__gnu_Unwind_Save_VFP_D_16_to_31>
    6b40:	e2665010 	rsb	r5, r6, #16
    6b44:	e5941038 	ldr	r1, [r4, #56]	; 0x38
    6b48:	e3550000 	cmp	r5, #0
    6b4c:	e1a03001 	mov	r3, r1
    6b50:	da000009 	ble	6b7c <_Unwind_VRS_Pop+0x1d0>
    6b54:	e1a05085 	lsl	r5, r5, #1
    6b58:	e28d2e11 	add	r2, sp, #272	; 0x110
    6b5c:	e0820186 	add	r0, r2, r6, lsl #3
    6b60:	e1a02005 	mov	r2, r5
    6b64:	ea000001 	b	6b70 <_Unwind_VRS_Pop+0x1c4>
    6b68:	e491c004 	ldr	ip, [r1], #4
    6b6c:	e480c004 	str	ip, [r0], #4
    6b70:	e2522001 	subs	r2, r2, #1
    6b74:	2afffffb 	bcs	6b68 <_Unwind_VRS_Pop+0x1bc>
    6b78:	e0833105 	add	r3, r3, r5, lsl #2
    6b7c:	e3570000 	cmp	r7, #0
    6b80:	0a00000e 	beq	6bc0 <_Unwind_VRS_Pop+0x214>
    6b84:	e3560010 	cmp	r6, #16
    6b88:	21a00006 	movcs	r0, r6
    6b8c:	33a00010 	movcc	r0, #16
    6b90:	e28d1f66 	add	r1, sp, #408	; 0x198
    6b94:	e1a0a08a 	lsl	sl, sl, #1
    6b98:	e0810180 	add	r0, r1, r0, lsl #3
    6b9c:	e1a01003 	mov	r1, r3
    6ba0:	e2400f82 	sub	r0, r0, #520	; 0x208
    6ba4:	e1a0200a 	mov	r2, sl
    6ba8:	ea000001 	b	6bb4 <_Unwind_VRS_Pop+0x208>
    6bac:	e491c004 	ldr	ip, [r1], #4
    6bb0:	e480c004 	str	ip, [r0], #4
    6bb4:	e2522001 	subs	r2, r2, #1
    6bb8:	2afffffb 	bcs	6bac <_Unwind_VRS_Pop+0x200>
    6bbc:	e083310a 	add	r3, r3, sl, lsl #2
    6bc0:	e3580000 	cmp	r8, #0
    6bc4:	12833004 	addne	r3, r3, #4
    6bc8:	e3580000 	cmp	r8, #0
    6bcc:	e5843038 	str	r3, [r4, #56]	; 0x38
    6bd0:	0a000002 	beq	6be0 <_Unwind_VRS_Pop+0x234>
    6bd4:	e28d0e11 	add	r0, sp, #272	; 0x110
    6bd8:	eb0000d9 	bl	6f44 <__gnu_Unwind_Restore_VFP>
    6bdc:	ea00003f 	b	6ce0 <_Unwind_VRS_Pop+0x334>
    6be0:	e356000f 	cmp	r6, #15
    6be4:	8a000001 	bhi	6bf0 <_Unwind_VRS_Pop+0x244>
    6be8:	e28d0e11 	add	r0, sp, #272	; 0x110
    6bec:	eb0000d8 	bl	6f54 <__gnu_Unwind_Restore_VFP_D>
    6bf0:	e3570000 	cmp	r7, #0
    6bf4:	0a00003c 	beq	6cec <_Unwind_VRS_Pop+0x340>
    6bf8:	e28d0010 	add	r0, sp, #16
    6bfc:	eb0000d8 	bl	6f64 <__gnu_Unwind_Restore_VFP_D_16_to_31>
    6c00:	ea000036 	b	6ce0 <_Unwind_VRS_Pop+0x334>
    6c04:	e3530003 	cmp	r3, #3
    6c08:	1a000036 	bne	6ce8 <_Unwind_VRS_Pop+0x33c>
    6c0c:	e1a06822 	lsr	r6, r2, #16
    6c10:	e6ff5072 	uxth	r5, r2
    6c14:	e0853006 	add	r3, r5, r6
    6c18:	e3530010 	cmp	r3, #16
    6c1c:	8a000031 	bhi	6ce8 <_Unwind_VRS_Pop+0x33c>
    6c20:	e5903000 	ldr	r3, [r0]
    6c24:	e3130008 	tst	r3, #8
    6c28:	0a000002 	beq	6c38 <_Unwind_VRS_Pop+0x28c>
    6c2c:	e3c33008 	bic	r3, r3, #8
    6c30:	e48031b0 	str	r3, [r0], #432	; 0x1b0
    6c34:	eb0000df 	bl	6fb8 <__gnu_Unwind_Save_WMMXD>
    6c38:	e28d0090 	add	r0, sp, #144	; 0x90
    6c3c:	e1a05085 	lsl	r5, r5, #1
    6c40:	eb0000dc 	bl	6fb8 <__gnu_Unwind_Save_WMMXD>
    6c44:	e5943038 	ldr	r3, [r4, #56]	; 0x38
    6c48:	e28d0090 	add	r0, sp, #144	; 0x90
    6c4c:	e1a07005 	mov	r7, r5
    6c50:	e0806186 	add	r6, r0, r6, lsl #3
    6c54:	e1a02003 	mov	r2, r3
    6c58:	ea000002 	b	6c68 <_Unwind_VRS_Pop+0x2bc>
    6c5c:	e4931004 	ldr	r1, [r3], #4
    6c60:	e2477001 	sub	r7, r7, #1
    6c64:	e4861004 	str	r1, [r6], #4
    6c68:	e3570000 	cmp	r7, #0
    6c6c:	1afffffa 	bne	6c5c <_Unwind_VRS_Pop+0x2b0>
    6c70:	e0825105 	add	r5, r2, r5, lsl #2
    6c74:	e28d0090 	add	r0, sp, #144	; 0x90
    6c78:	e5845038 	str	r5, [r4, #56]	; 0x38
    6c7c:	eb0000bc 	bl	6f74 <__gnu_Unwind_Restore_WMMXD>
    6c80:	ea000019 	b	6cec <_Unwind_VRS_Pop+0x340>
    6c84:	e3520010 	cmp	r2, #16
    6c88:	93530000 	cmpls	r3, #0
    6c8c:	1a000015 	bne	6ce8 <_Unwind_VRS_Pop+0x33c>
    6c90:	e5903000 	ldr	r3, [r0]
    6c94:	e3130010 	tst	r3, #16
    6c98:	0a000002 	beq	6ca8 <_Unwind_VRS_Pop+0x2fc>
    6c9c:	e3c33010 	bic	r3, r3, #16
    6ca0:	e4803230 	str	r3, [r0], #560	; 0x230
    6ca4:	eb0000d9 	bl	7010 <__gnu_Unwind_Save_WMMXC>
    6ca8:	e1a0000d 	mov	r0, sp
    6cac:	eb0000d7 	bl	7010 <__gnu_Unwind_Save_WMMXC>
    6cb0:	e5942038 	ldr	r2, [r4, #56]	; 0x38
    6cb4:	e3a03000 	mov	r3, #0
    6cb8:	e3a01001 	mov	r1, #1
    6cbc:	e0150311 	ands	r0, r5, r1, lsl r3
    6cc0:	14920004 	ldrne	r0, [r2], #4
    6cc4:	178d0103 	strne	r0, [sp, r3, lsl #2]
    6cc8:	e2833001 	add	r3, r3, #1
    6ccc:	e3530004 	cmp	r3, #4
    6cd0:	1afffff9 	bne	6cbc <_Unwind_VRS_Pop+0x310>
    6cd4:	e5842038 	str	r2, [r4, #56]	; 0x38
    6cd8:	e1a0000d 	mov	r0, sp
    6cdc:	eb0000c6 	bl	6ffc <__gnu_Unwind_Restore_WMMXC>
    6ce0:	e3a07000 	mov	r7, #0
    6ce4:	ea000000 	b	6cec <_Unwind_VRS_Pop+0x340>
    6ce8:	e3a07002 	mov	r7, #2
    6cec:	e1a00007 	mov	r0, r7
    6cf0:	e28ddf67 	add	sp, sp, #412	; 0x19c
    6cf4:	e8bd85f0 	pop	{r4, r5, r6, r7, r8, sl, pc}

00006cf8 <_Unwind_GetCFA>:
    6cf8:	e5900044 	ldr	r0, [r0, #68]	; 0x44
    6cfc:	e12fff1e 	bx	lr

00006d00 <__gnu_Unwind_RaiseException>:
    6d00:	e591303c 	ldr	r3, [r1, #60]	; 0x3c
    6d04:	e92d40f0 	push	{r4, r5, r6, r7, lr}
    6d08:	e281e004 	add	lr, r1, #4
    6d0c:	e5813040 	str	r3, [r1, #64]	; 0x40
    6d10:	e1a05000 	mov	r5, r0
    6d14:	e1a04001 	mov	r4, r1
    6d18:	e24ddf91 	sub	sp, sp, #580	; 0x244
    6d1c:	e8be000f 	ldm	lr!, {r0, r1, r2, r3}
    6d20:	e28dc004 	add	ip, sp, #4
    6d24:	e28d6d09 	add	r6, sp, #576	; 0x240
    6d28:	e8ac000f 	stmia	ip!, {r0, r1, r2, r3}
    6d2c:	e8be000f 	ldm	lr!, {r0, r1, r2, r3}
    6d30:	e8ac000f 	stmia	ip!, {r0, r1, r2, r3}
    6d34:	e8be000f 	ldm	lr!, {r0, r1, r2, r3}
    6d38:	e8ac000f 	stmia	ip!, {r0, r1, r2, r3}
    6d3c:	e89e000f 	ldm	lr, {r0, r1, r2, r3}
    6d40:	e88c000f 	stm	ip, {r0, r1, r2, r3}
    6d44:	e3e03000 	mvn	r3, #0
    6d48:	e5263240 	str	r3, [r6, #-576]!	; 0x240
    6d4c:	e1a00005 	mov	r0, r5
    6d50:	e59d1040 	ldr	r1, [sp, #64]	; 0x40
    6d54:	ebfffd08 	bl	617c <__aeabi_idiv0+0x28>
    6d58:	e3500000 	cmp	r0, #0
    6d5c:	1a00000d 	bne	6d98 <__gnu_Unwind_RaiseException+0x98>
    6d60:	e5953010 	ldr	r3, [r5, #16]
    6d64:	e1a01005 	mov	r1, r5
    6d68:	e1a0200d 	mov	r2, sp
    6d6c:	e12fff33 	blx	r3
    6d70:	e3500008 	cmp	r0, #8
    6d74:	e1a07000 	mov	r7, r0
    6d78:	0afffff3 	beq	6d4c <__gnu_Unwind_RaiseException+0x4c>
    6d7c:	e1a0000d 	mov	r0, sp
    6d80:	ebfffd72 	bl	6350 <__aeabi_idiv0+0x1fc>
    6d84:	e3570006 	cmp	r7, #6
    6d88:	1a000002 	bne	6d98 <__gnu_Unwind_RaiseException+0x98>
    6d8c:	e1a00005 	mov	r0, r5
    6d90:	e1a01004 	mov	r1, r4
    6d94:	ebfffdcd 	bl	64d0 <__aeabi_idiv0+0x37c>
    6d98:	e3a00009 	mov	r0, #9
    6d9c:	e28ddf91 	add	sp, sp, #580	; 0x244
    6da0:	e8bd80f0 	pop	{r4, r5, r6, r7, pc}

00006da4 <__gnu_Unwind_ForcedUnwind>:
    6da4:	e5802018 	str	r2, [r0, #24]
    6da8:	e593203c 	ldr	r2, [r3, #60]	; 0x3c
    6dac:	e580100c 	str	r1, [r0, #12]
    6db0:	e1a01003 	mov	r1, r3
    6db4:	e5832040 	str	r2, [r3, #64]	; 0x40
    6db8:	e3a02000 	mov	r2, #0
    6dbc:	eafffd7e 	b	63bc <__aeabi_idiv0+0x268>

00006dc0 <__gnu_Unwind_Resume>:
    6dc0:	e92d4038 	push	{r3, r4, r5, lr}
    6dc4:	e1a04000 	mov	r4, r0
    6dc8:	e5903014 	ldr	r3, [r0, #20]
    6dcc:	e1a05001 	mov	r5, r1
    6dd0:	e5813040 	str	r3, [r1, #64]	; 0x40
    6dd4:	e590300c 	ldr	r3, [r0, #12]
    6dd8:	e3530000 	cmp	r3, #0
    6ddc:	0a000002 	beq	6dec <__gnu_Unwind_Resume+0x2c>
    6de0:	e3a02001 	mov	r2, #1
    6de4:	ebfffd74 	bl	63bc <__aeabi_idiv0+0x268>
    6de8:	ea00000e 	b	6e28 <__gnu_Unwind_Resume+0x68>
    6dec:	e5903010 	ldr	r3, [r0, #16]
    6df0:	e1a01004 	mov	r1, r4
    6df4:	e3a00002 	mov	r0, #2
    6df8:	e1a02005 	mov	r2, r5
    6dfc:	e12fff33 	blx	r3
    6e00:	e3500007 	cmp	r0, #7
    6e04:	0a000002 	beq	6e14 <__gnu_Unwind_Resume+0x54>
    6e08:	e3500008 	cmp	r0, #8
    6e0c:	1a000005 	bne	6e28 <__gnu_Unwind_Resume+0x68>
    6e10:	ea000001 	b	6e1c <__gnu_Unwind_Resume+0x5c>
    6e14:	e2850004 	add	r0, r5, #4
    6e18:	eb000044 	bl	6f30 <__restore_core_regs>
    6e1c:	e1a00004 	mov	r0, r4
    6e20:	e1a01005 	mov	r1, r5
    6e24:	ebfffda9 	bl	64d0 <__aeabi_idiv0+0x37c>
    6e28:	ebffec49 	bl	1f54 <abort@plt>

00006e2c <__gnu_Unwind_Resume_or_Rethrow>:
    6e2c:	e590200c 	ldr	r2, [r0, #12]
    6e30:	e3520000 	cmp	r2, #0
    6e34:	1a000000 	bne	6e3c <__gnu_Unwind_Resume_or_Rethrow+0x10>
    6e38:	eaffffb0 	b	6d00 <__gnu_Unwind_RaiseException>
    6e3c:	e591203c 	ldr	r2, [r1, #60]	; 0x3c
    6e40:	e5812040 	str	r2, [r1, #64]	; 0x40
    6e44:	e3a02000 	mov	r2, #0
    6e48:	eafffd5b 	b	63bc <__aeabi_idiv0+0x268>

00006e4c <_Unwind_Complete>:
    6e4c:	e12fff1e 	bx	lr

00006e50 <_Unwind_DeleteException>:
    6e50:	e92d4008 	push	{r3, lr}
    6e54:	e1a01000 	mov	r1, r0
    6e58:	e5903008 	ldr	r3, [r0, #8]
    6e5c:	e3530000 	cmp	r3, #0
    6e60:	08bd8008 	popeq	{r3, pc}
    6e64:	e3a00001 	mov	r0, #1
    6e68:	e12fff33 	blx	r3
    6e6c:	e8bd8008 	pop	{r3, pc}

00006e70 <__gnu_Unwind_Backtrace>:
    6e70:	e592303c 	ldr	r3, [r2, #60]	; 0x3c
    6e74:	e92d4070 	push	{r4, r5, r6, lr}
    6e78:	e282e004 	add	lr, r2, #4
    6e7c:	e5823040 	str	r3, [r2, #64]	; 0x40
    6e80:	e1a05000 	mov	r5, r0
    6e84:	e1a04001 	mov	r4, r1
    6e88:	e24ddfa6 	sub	sp, sp, #664	; 0x298
    6e8c:	e8be000f 	ldm	lr!, {r0, r1, r2, r3}
    6e90:	e28dc05c 	add	ip, sp, #92	; 0x5c
    6e94:	e8ac000f 	stmia	ip!, {r0, r1, r2, r3}
    6e98:	e8be000f 	ldm	lr!, {r0, r1, r2, r3}
    6e9c:	e8ac000f 	stmia	ip!, {r0, r1, r2, r3}
    6ea0:	e8be000f 	ldm	lr!, {r0, r1, r2, r3}
    6ea4:	e8ac000f 	stmia	ip!, {r0, r1, r2, r3}
    6ea8:	e89e000f 	ldm	lr, {r0, r1, r2, r3}
    6eac:	e88c000f 	stm	ip, {r0, r1, r2, r3}
    6eb0:	e3e03000 	mvn	r3, #0
    6eb4:	e58d3058 	str	r3, [sp, #88]	; 0x58
    6eb8:	e1a0000d 	mov	r0, sp
    6ebc:	e59d1098 	ldr	r1, [sp, #152]	; 0x98
    6ec0:	ebfffcad 	bl	617c <__aeabi_idiv0+0x28>
    6ec4:	e3500000 	cmp	r0, #0
    6ec8:	1a000012 	bne	6f18 <__gnu_Unwind_Backtrace+0xa8>
    6ecc:	e28d0058 	add	r0, sp, #88	; 0x58
    6ed0:	e3a0100c 	mov	r1, #12
    6ed4:	e1a0200d 	mov	r2, sp
    6ed8:	ebfffdbe 	bl	65d8 <_Unwind_VRS_Set+0x44>
    6edc:	e28d0058 	add	r0, sp, #88	; 0x58
    6ee0:	e1a01004 	mov	r1, r4
    6ee4:	e12fff35 	blx	r5
    6ee8:	e3500000 	cmp	r0, #0
    6eec:	1a000009 	bne	6f18 <__gnu_Unwind_Backtrace+0xa8>
    6ef0:	e3a00008 	mov	r0, #8
    6ef4:	e1a0100d 	mov	r1, sp
    6ef8:	e28d2058 	add	r2, sp, #88	; 0x58
    6efc:	e59d3010 	ldr	r3, [sp, #16]
    6f00:	e12fff33 	blx	r3
    6f04:	e3500009 	cmp	r0, #9
    6f08:	13500005 	cmpne	r0, #5
    6f0c:	e1a06000 	mov	r6, r0
    6f10:	1affffe8 	bne	6eb8 <__gnu_Unwind_Backtrace+0x48>
    6f14:	ea000000 	b	6f1c <__gnu_Unwind_Backtrace+0xac>
    6f18:	e3a06009 	mov	r6, #9
    6f1c:	e28d0058 	add	r0, sp, #88	; 0x58
    6f20:	ebfffd0a 	bl	6350 <__aeabi_idiv0+0x1fc>
    6f24:	e1a00006 	mov	r0, r6
    6f28:	e28ddfa6 	add	sp, sp, #664	; 0x298
    6f2c:	e8bd8070 	pop	{r4, r5, r6, pc}

00006f30 <__restore_core_regs>:
    6f30:	e2801034 	add	r1, r0, #52	; 0x34
    6f34:	e8910038 	ldm	r1, {r3, r4, r5}
    6f38:	e92d0038 	push	{r3, r4, r5}
    6f3c:	e8900fff 	ldm	r0, {r0, r1, r2, r3, r4, r5, r6, r7, r8, r9, sl, fp}
    6f40:	e89de000 	ldm	sp, {sp, lr, pc}

00006f44 <__gnu_Unwind_Restore_VFP>:
    6f44:	ec900b21 	fldmiax	r0, {d0-d15}	;@ Deprecated
    6f48:	e12fff1e 	bx	lr

00006f4c <__gnu_Unwind_Save_VFP>:
    6f4c:	ec800b21 	fstmiax	r0, {d0-d15}	;@ Deprecated
    6f50:	e12fff1e 	bx	lr

00006f54 <__gnu_Unwind_Restore_VFP_D>:
    6f54:	ec900b20 	vldmia	r0, {d0-d15}
    6f58:	e12fff1e 	bx	lr

00006f5c <__gnu_Unwind_Save_VFP_D>:
    6f5c:	ec800b20 	vstmia	r0, {d0-d15}
    6f60:	e12fff1e 	bx	lr

00006f64 <__gnu_Unwind_Restore_VFP_D_16_to_31>:
    6f64:	ecd00b20 	vldmia	r0, {d16-d31}
    6f68:	e12fff1e 	bx	lr

00006f6c <__gnu_Unwind_Save_VFP_D_16_to_31>:
    6f6c:	ecc00b20 	vstmia	r0, {d16-d31}
    6f70:	e12fff1e 	bx	lr

00006f74 <__gnu_Unwind_Restore_WMMXD>:
    6f74:	ecf00102 	ldfe	f0, [r0], #8
    6f78:	ecf01102 	ldfe	f1, [r0], #8
    6f7c:	ecf02102 	ldfe	f2, [r0], #8
    6f80:	ecf03102 	ldfe	f3, [r0], #8
    6f84:	ecf04102 	ldfe	f4, [r0], #8
    6f88:	ecf05102 	ldfe	f5, [r0], #8
    6f8c:	ecf06102 	ldfe	f6, [r0], #8
    6f90:	ecf07102 	ldfe	f7, [r0], #8
    6f94:	ecf08102 	ldfp	f0, [r0], #8
    6f98:	ecf09102 	ldfp	f1, [r0], #8
    6f9c:	ecf0a102 	ldfp	f2, [r0], #8
    6fa0:	ecf0b102 	ldfp	f3, [r0], #8
    6fa4:	ecf0c102 	ldfp	f4, [r0], #8
    6fa8:	ecf0d102 	ldfp	f5, [r0], #8
    6fac:	ecf0e102 	ldfp	f6, [r0], #8
    6fb0:	ecf0f102 	ldfp	f7, [r0], #8
    6fb4:	e12fff1e 	bx	lr

00006fb8 <__gnu_Unwind_Save_WMMXD>:
    6fb8:	ece00102 	stfe	f0, [r0], #8
    6fbc:	ece01102 	stfe	f1, [r0], #8
    6fc0:	ece02102 	stfe	f2, [r0], #8
    6fc4:	ece03102 	stfe	f3, [r0], #8
    6fc8:	ece04102 	stfe	f4, [r0], #8
    6fcc:	ece05102 	stfe	f5, [r0], #8
    6fd0:	ece06102 	stfe	f6, [r0], #8
    6fd4:	ece07102 	stfe	f7, [r0], #8
    6fd8:	ece08102 	stfp	f0, [r0], #8
    6fdc:	ece09102 	stfp	f1, [r0], #8
    6fe0:	ece0a102 	stfp	f2, [r0], #8
    6fe4:	ece0b102 	stfp	f3, [r0], #8
    6fe8:	ece0c102 	stfp	f4, [r0], #8
    6fec:	ece0d102 	stfp	f5, [r0], #8
    6ff0:	ece0e102 	stfp	f6, [r0], #8
    6ff4:	ece0f102 	stfp	f7, [r0], #8
    6ff8:	e12fff1e 	bx	lr

00006ffc <__gnu_Unwind_Restore_WMMXC>:
    6ffc:	fcb08101 	ldc2	1, cr8, [r0], #4
    7000:	fcb09101 	ldc2	1, cr9, [r0], #4
    7004:	fcb0a101 	ldc2	1, cr10, [r0], #4
    7008:	fcb0b101 	ldc2	1, cr11, [r0], #4
    700c:	e12fff1e 	bx	lr

00007010 <__gnu_Unwind_Save_WMMXC>:
    7010:	fca08101 	stc2	1, cr8, [r0], #4
    7014:	fca09101 	stc2	1, cr9, [r0], #4
    7018:	fca0a101 	stc2	1, cr10, [r0], #4
    701c:	fca0b101 	stc2	1, cr11, [r0], #4
    7020:	e12fff1e 	bx	lr

00007024 <_Unwind_RaiseException>:
    7024:	e92de000 	push	{sp, lr, pc}
    7028:	e92d1fff 	push	{r0, r1, r2, r3, r4, r5, r6, r7, r8, r9, sl, fp, ip}
    702c:	e3a03000 	mov	r3, #0
    7030:	e92d000c 	push	{r2, r3}
    7034:	e28d1004 	add	r1, sp, #4
    7038:	ebffff30 	bl	6d00 <__gnu_Unwind_RaiseException>
    703c:	e59de040 	ldr	lr, [sp, #64]	; 0x40
    7040:	e28dd048 	add	sp, sp, #72	; 0x48
    7044:	e12fff1e 	bx	lr

00007048 <_Unwind_Resume>:
    7048:	e92de000 	push	{sp, lr, pc}
    704c:	e92d1fff 	push	{r0, r1, r2, r3, r4, r5, r6, r7, r8, r9, sl, fp, ip}
    7050:	e3a03000 	mov	r3, #0
    7054:	e92d000c 	push	{r2, r3}
    7058:	e28d1004 	add	r1, sp, #4
    705c:	ebffff57 	bl	6dc0 <__gnu_Unwind_Resume>
    7060:	e59de040 	ldr	lr, [sp, #64]	; 0x40
    7064:	e28dd048 	add	sp, sp, #72	; 0x48
    7068:	e12fff1e 	bx	lr

0000706c <_Unwind_Resume_or_Rethrow>:
    706c:	e92de000 	push	{sp, lr, pc}
    7070:	e92d1fff 	push	{r0, r1, r2, r3, r4, r5, r6, r7, r8, r9, sl, fp, ip}
    7074:	e3a03000 	mov	r3, #0
    7078:	e92d000c 	push	{r2, r3}
    707c:	e28d1004 	add	r1, sp, #4
    7080:	ebffff69 	bl	6e2c <__gnu_Unwind_Resume_or_Rethrow>
    7084:	e59de040 	ldr	lr, [sp, #64]	; 0x40
    7088:	e28dd048 	add	sp, sp, #72	; 0x48
    708c:	e12fff1e 	bx	lr

00007090 <_Unwind_ForcedUnwind>:
    7090:	e92de000 	push	{sp, lr, pc}
    7094:	e92d1fff 	push	{r0, r1, r2, r3, r4, r5, r6, r7, r8, r9, sl, fp, ip}
    7098:	e3a03000 	mov	r3, #0
    709c:	e92d000c 	push	{r2, r3}
    70a0:	e28d3004 	add	r3, sp, #4
    70a4:	ebffff3e 	bl	6da4 <__gnu_Unwind_ForcedUnwind>
    70a8:	e59de040 	ldr	lr, [sp, #64]	; 0x40
    70ac:	e28dd048 	add	sp, sp, #72	; 0x48
    70b0:	e12fff1e 	bx	lr

000070b4 <_Unwind_Backtrace>:
    70b4:	e92de000 	push	{sp, lr, pc}
    70b8:	e92d1fff 	push	{r0, r1, r2, r3, r4, r5, r6, r7, r8, r9, sl, fp, ip}
    70bc:	e3a03000 	mov	r3, #0
    70c0:	e92d000c 	push	{r2, r3}
    70c4:	e28d2004 	add	r2, sp, #4
    70c8:	ebffff68 	bl	6e70 <__gnu_Unwind_Backtrace>
    70cc:	e59de040 	ldr	lr, [sp, #64]	; 0x40
    70d0:	e28dd048 	add	sp, sp, #72	; 0x48
    70d4:	e12fff1e 	bx	lr
    70d8:	e5d02008 	ldrb	r2, [r0, #8]
    70dc:	e1a03000 	mov	r3, r0
    70e0:	e3520000 	cmp	r2, #0
    70e4:	12422001 	subne	r2, r2, #1
    70e8:	1a000008 	bne	7110 <_Unwind_Backtrace+0x5c>
    70ec:	e5d02009 	ldrb	r2, [r0, #9]
    70f0:	e3520000 	cmp	r2, #0
    70f4:	0a00000b 	beq	7128 <_Unwind_Backtrace+0x74>
    70f8:	e2422001 	sub	r2, r2, #1
    70fc:	e5c02009 	strb	r2, [r0, #9]
    7100:	e5902004 	ldr	r2, [r0, #4]
    7104:	e4921004 	ldr	r1, [r2], #4
    7108:	e8800006 	stm	r0, {r1, r2}
    710c:	e3a02003 	mov	r2, #3
    7110:	e5c32008 	strb	r2, [r3, #8]
    7114:	e5932000 	ldr	r2, [r3]
    7118:	e1a00c22 	lsr	r0, r2, #24
    711c:	e1a02402 	lsl	r2, r2, #8
    7120:	e5832000 	str	r2, [r3]
    7124:	e12fff1e 	bx	lr
    7128:	e3a000b0 	mov	r0, #176	; 0xb0
    712c:	e12fff1e 	bx	lr

00007130 <__gnu_unwind_execute>:
    7130:	e92d47ff 	push	{r0, r1, r2, r3, r4, r5, r6, r7, r8, r9, sl, lr}
    7134:	e28da00c 	add	sl, sp, #12
    7138:	e1a05000 	mov	r5, r0
    713c:	e1a06001 	mov	r6, r1
    7140:	e3a07000 	mov	r7, #0
    7144:	e3a09eff 	mov	r9, #4080	; 0xff0
    7148:	e1a00006 	mov	r0, r6
    714c:	ebffffe1 	bl	70d8 <_Unwind_Backtrace+0x24>
    7150:	e35000b0 	cmp	r0, #176	; 0xb0
    7154:	e1a04000 	mov	r4, r0
    7158:	1a000011 	bne	71a4 <__gnu_unwind_execute+0x74>
    715c:	e3570000 	cmp	r7, #0
    7160:	13a00000 	movne	r0, #0
    7164:	1a0000d4 	bne	74bc <__gnu_unwind_execute+0x38c>
    7168:	e1a01007 	mov	r1, r7
    716c:	e3a0200e 	mov	r2, #14
    7170:	e1a03007 	mov	r3, r7
    7174:	e1a00005 	mov	r0, r5
    7178:	e28d400c 	add	r4, sp, #12
    717c:	e58d4000 	str	r4, [sp]
    7180:	ebfffce8 	bl	6528 <_Unwind_VRS_Get>
    7184:	e1a00005 	mov	r0, r5
    7188:	e1a01007 	mov	r1, r7
    718c:	e3a0200f 	mov	r2, #15
    7190:	e1a03007 	mov	r3, r7
    7194:	e58d4000 	str	r4, [sp]
    7198:	ebfffcfd 	bl	6594 <_Unwind_VRS_Set>
    719c:	e1a00007 	mov	r0, r7
    71a0:	ea0000c5 	b	74bc <__gnu_unwind_execute+0x38c>
    71a4:	e2101080 	ands	r1, r0, #128	; 0x80
    71a8:	1a000010 	bne	71f0 <__gnu_unwind_execute+0xc0>
    71ac:	e1a08100 	lsl	r8, r0, #2
    71b0:	e1a03001 	mov	r3, r1
    71b4:	e1a00005 	mov	r0, r5
    71b8:	e3a0200d 	mov	r2, #13
    71bc:	e6ef8078 	uxtb	r8, r8
    71c0:	e58da000 	str	sl, [sp]
    71c4:	ebfffcd7 	bl	6528 <_Unwind_VRS_Get>
    71c8:	e59d300c 	ldr	r3, [sp, #12]
    71cc:	e2888004 	add	r8, r8, #4
    71d0:	e3140040 	tst	r4, #64	; 0x40
    71d4:	10688003 	rsbne	r8, r8, r3
    71d8:	00838008 	addeq	r8, r3, r8
    71dc:	e58da000 	str	sl, [sp]
    71e0:	e1a00005 	mov	r0, r5
    71e4:	e58d800c 	str	r8, [sp, #12]
    71e8:	e3a01000 	mov	r1, #0
    71ec:	ea000024 	b	7284 <__gnu_unwind_execute+0x154>
    71f0:	e20030f0 	and	r3, r0, #240	; 0xf0
    71f4:	e3530080 	cmp	r3, #128	; 0x80
    71f8:	1a000011 	bne	7244 <__gnu_unwind_execute+0x114>
    71fc:	e1a04400 	lsl	r4, r0, #8
    7200:	e1a00006 	mov	r0, r6
    7204:	ebffffb3 	bl	70d8 <_Unwind_Backtrace+0x24>
    7208:	e1804004 	orr	r4, r0, r4
    720c:	e3540902 	cmp	r4, #32768	; 0x8000
    7210:	0a0000a8 	beq	74b8 <__gnu_unwind_execute+0x388>
    7214:	e1a02a04 	lsl	r2, r4, #20
    7218:	e3a01000 	mov	r1, #0
    721c:	e1a00005 	mov	r0, r5
    7220:	e1a03001 	mov	r3, r1
    7224:	e1a02822 	lsr	r2, r2, #16
    7228:	e1a08204 	lsl	r8, r4, #4
    722c:	ebfffdde 	bl	69ac <_Unwind_VRS_Pop>
    7230:	e3500000 	cmp	r0, #0
    7234:	1a00009f 	bne	74b8 <__gnu_unwind_execute+0x388>
    7238:	e3180902 	tst	r8, #32768	; 0x8000
    723c:	13a07001 	movne	r7, #1
    7240:	eaffffc0 	b	7148 <__gnu_unwind_execute+0x18>
    7244:	e3530090 	cmp	r3, #144	; 0x90
    7248:	1a000011 	bne	7294 <__gnu_unwind_execute+0x164>
    724c:	e200200f 	and	r2, r0, #15
    7250:	e352000d 	cmp	r2, #13
    7254:	1352000f 	cmpne	r2, #15
    7258:	13a08000 	movne	r8, #0
    725c:	03a08001 	moveq	r8, #1
    7260:	0a000094 	beq	74b8 <__gnu_unwind_execute+0x388>
    7264:	e1a01008 	mov	r1, r8
    7268:	e1a00005 	mov	r0, r5
    726c:	e1a03008 	mov	r3, r8
    7270:	e58da000 	str	sl, [sp]
    7274:	ebfffcab 	bl	6528 <_Unwind_VRS_Get>
    7278:	e1a00005 	mov	r0, r5
    727c:	e1a01008 	mov	r1, r8
    7280:	e58da000 	str	sl, [sp]
    7284:	e3a0200d 	mov	r2, #13
    7288:	e1a03001 	mov	r3, r1
    728c:	ebfffcc0 	bl	6594 <_Unwind_VRS_Set>
    7290:	eaffffac 	b	7148 <__gnu_unwind_execute+0x18>
    7294:	e35300a0 	cmp	r3, #160	; 0xa0
    7298:	1a000008 	bne	72c0 <__gnu_unwind_execute+0x190>
    729c:	e1e02000 	mvn	r2, r0
    72a0:	e2022007 	and	r2, r2, #7
    72a4:	e1a02259 	asr	r2, r9, r2
    72a8:	e3100008 	tst	r0, #8
    72ac:	e2022eff 	and	r2, r2, #4080	; 0xff0
    72b0:	e1a00005 	mov	r0, r5
    72b4:	13822901 	orrne	r2, r2, #16384	; 0x4000
    72b8:	e3a01000 	mov	r1, #0
    72bc:	ea00005d 	b	7438 <__gnu_unwind_execute+0x308>
    72c0:	e35300b0 	cmp	r3, #176	; 0xb0
    72c4:	1a00003b 	bne	73b8 <__gnu_unwind_execute+0x288>
    72c8:	e35000b1 	cmp	r0, #177	; 0xb1
    72cc:	1a000007 	bne	72f0 <__gnu_unwind_execute+0x1c0>
    72d0:	e1a00006 	mov	r0, r6
    72d4:	ebffff7f 	bl	70d8 <_Unwind_Backtrace+0x24>
    72d8:	e2502000 	subs	r2, r0, #0
    72dc:	0a000075 	beq	74b8 <__gnu_unwind_execute+0x388>
    72e0:	e21210f0 	ands	r1, r2, #240	; 0xf0
    72e4:	1a000073 	bne	74b8 <__gnu_unwind_execute+0x388>
    72e8:	e1a00005 	mov	r0, r5
    72ec:	ea000051 	b	7438 <__gnu_unwind_execute+0x308>
    72f0:	e35000b2 	cmp	r0, #178	; 0xb2
    72f4:	1a000018 	bne	735c <__gnu_unwind_execute+0x22c>
    72f8:	e3a01000 	mov	r1, #0
    72fc:	e3a0200d 	mov	r2, #13
    7300:	e1a03001 	mov	r3, r1
    7304:	e1a00005 	mov	r0, r5
    7308:	e58da000 	str	sl, [sp]
    730c:	ebfffc85 	bl	6528 <_Unwind_VRS_Get>
    7310:	e1a00006 	mov	r0, r6
    7314:	e3a04002 	mov	r4, #2
    7318:	ebffff6e 	bl	70d8 <_Unwind_Backtrace+0x24>
    731c:	ea000004 	b	7334 <__gnu_unwind_execute+0x204>
    7320:	e0830410 	add	r0, r3, r0, lsl r4
    7324:	e58d000c 	str	r0, [sp, #12]
    7328:	e1a00006 	mov	r0, r6
    732c:	e2844007 	add	r4, r4, #7
    7330:	ebffff68 	bl	70d8 <_Unwind_Backtrace+0x24>
    7334:	e2101080 	ands	r1, r0, #128	; 0x80
    7338:	e59d300c 	ldr	r3, [sp, #12]
    733c:	e200007f 	and	r0, r0, #127	; 0x7f
    7340:	1afffff6 	bne	7320 <__gnu_unwind_execute+0x1f0>
    7344:	e2833f81 	add	r3, r3, #516	; 0x204
    7348:	e58da000 	str	sl, [sp]
    734c:	e0830410 	add	r0, r3, r0, lsl r4
    7350:	e58d000c 	str	r0, [sp, #12]
    7354:	e1a00005 	mov	r0, r5
    7358:	eaffffc9 	b	7284 <__gnu_unwind_execute+0x154>
    735c:	e35000b3 	cmp	r0, #179	; 0xb3
    7360:	1a000007 	bne	7384 <__gnu_unwind_execute+0x254>
    7364:	e1a00006 	mov	r0, r6
    7368:	ebffff5a 	bl	70d8 <_Unwind_Backtrace+0x24>
    736c:	e3a01001 	mov	r1, #1
    7370:	e200300f 	and	r3, r0, #15
    7374:	e20020f0 	and	r2, r0, #240	; 0xf0
    7378:	e2833001 	add	r3, r3, #1
    737c:	e1a00005 	mov	r0, r5
    7380:	ea000017 	b	73e4 <__gnu_unwind_execute+0x2b4>
    7384:	e20030fc 	and	r3, r0, #252	; 0xfc
    7388:	e35300b4 	cmp	r3, #180	; 0xb4
    738c:	02004003 	andeq	r4, r0, #3
    7390:	12044007 	andne	r4, r4, #7
    7394:	02842001 	addeq	r2, r4, #1
    7398:	12842001 	addne	r2, r4, #1
    739c:	01a00005 	moveq	r0, r5
    73a0:	03a01002 	moveq	r1, #2
    73a4:	03822701 	orreq	r2, r2, #262144	; 0x40000
    73a8:	11a00005 	movne	r0, r5
    73ac:	13a01001 	movne	r1, #1
    73b0:	13822702 	orrne	r2, r2, #524288	; 0x80000
    73b4:	ea00001f 	b	7438 <__gnu_unwind_execute+0x308>
    73b8:	e35300c0 	cmp	r3, #192	; 0xc0
    73bc:	1a000031 	bne	7488 <__gnu_unwind_execute+0x358>
    73c0:	e35000c6 	cmp	r0, #198	; 0xc6
    73c4:	1a000008 	bne	73ec <__gnu_unwind_execute+0x2bc>
    73c8:	e1a00006 	mov	r0, r6
    73cc:	ebffff41 	bl	70d8 <_Unwind_Backtrace+0x24>
    73d0:	e3a01003 	mov	r1, #3
    73d4:	e200300f 	and	r3, r0, #15
    73d8:	e20020f0 	and	r2, r0, #240	; 0xf0
    73dc:	e2833001 	add	r3, r3, #1
    73e0:	e1a00005 	mov	r0, r5
    73e4:	e1832602 	orr	r2, r3, r2, lsl #12
    73e8:	ea000012 	b	7438 <__gnu_unwind_execute+0x308>
    73ec:	e35000c7 	cmp	r0, #199	; 0xc7
    73f0:	1a000008 	bne	7418 <__gnu_unwind_execute+0x2e8>
    73f4:	e1a00006 	mov	r0, r6
    73f8:	ebffff36 	bl	70d8 <_Unwind_Backtrace+0x24>
    73fc:	e2502000 	subs	r2, r0, #0
    7400:	0a00002c 	beq	74b8 <__gnu_unwind_execute+0x388>
    7404:	e21230f0 	ands	r3, r2, #240	; 0xf0
    7408:	1a00002a 	bne	74b8 <__gnu_unwind_execute+0x388>
    740c:	e1a00005 	mov	r0, r5
    7410:	e3a01004 	mov	r1, #4
    7414:	ea000024 	b	74ac <__gnu_unwind_execute+0x37c>
    7418:	e20030f8 	and	r3, r0, #248	; 0xf8
    741c:	e35300c0 	cmp	r3, #192	; 0xc0
    7420:	1a000006 	bne	7440 <__gnu_unwind_execute+0x310>
    7424:	e200400f 	and	r4, r0, #15
    7428:	e3a01003 	mov	r1, #3
    742c:	e2842001 	add	r2, r4, #1
    7430:	e1a00005 	mov	r0, r5
    7434:	e382280a 	orr	r2, r2, #655360	; 0xa0000
    7438:	e1a03001 	mov	r3, r1
    743c:	ea00001a 	b	74ac <__gnu_unwind_execute+0x37c>
    7440:	e35000c8 	cmp	r0, #200	; 0xc8
    7444:	1a000004 	bne	745c <__gnu_unwind_execute+0x32c>
    7448:	e1a00006 	mov	r0, r6
    744c:	ebffff21 	bl	70d8 <_Unwind_Backtrace+0x24>
    7450:	e20020f0 	and	r2, r0, #240	; 0xf0
    7454:	e2822010 	add	r2, r2, #16
    7458:	ea000004 	b	7470 <__gnu_unwind_execute+0x340>
    745c:	e35000c9 	cmp	r0, #201	; 0xc9
    7460:	1a000014 	bne	74b8 <__gnu_unwind_execute+0x388>
    7464:	e1a00006 	mov	r0, r6
    7468:	ebffff1a 	bl	70d8 <_Unwind_Backtrace+0x24>
    746c:	e20020f0 	and	r2, r0, #240	; 0xf0
    7470:	e200300f 	and	r3, r0, #15
    7474:	e3a01001 	mov	r1, #1
    7478:	e2833001 	add	r3, r3, #1
    747c:	e1a00005 	mov	r0, r5
    7480:	e1832602 	orr	r2, r3, r2, lsl #12
    7484:	ea000007 	b	74a8 <__gnu_unwind_execute+0x378>
    7488:	e20030f8 	and	r3, r0, #248	; 0xf8
    748c:	e35300d0 	cmp	r3, #208	; 0xd0
    7490:	1a000008 	bne	74b8 <__gnu_unwind_execute+0x388>
    7494:	e2004007 	and	r4, r0, #7
    7498:	e3a01001 	mov	r1, #1
    749c:	e2842001 	add	r2, r4, #1
    74a0:	e1a00005 	mov	r0, r5
    74a4:	e3822702 	orr	r2, r2, #524288	; 0x80000
    74a8:	e3a03005 	mov	r3, #5
    74ac:	ebfffd3e 	bl	69ac <_Unwind_VRS_Pop>
    74b0:	e3500000 	cmp	r0, #0
    74b4:	0affff23 	beq	7148 <__gnu_unwind_execute+0x18>
    74b8:	e3a00009 	mov	r0, #9
    74bc:	e28dd010 	add	sp, sp, #16
    74c0:	e8bd87f0 	pop	{r4, r5, r6, r7, r8, r9, sl, pc}

000074c4 <__gnu_unwind_frame>:
    74c4:	e92d401f 	push	{r0, r1, r2, r3, r4, lr}
    74c8:	e590304c 	ldr	r3, [r0, #76]	; 0x4c
    74cc:	e1a00001 	mov	r0, r1
    74d0:	e28d1004 	add	r1, sp, #4
    74d4:	e5932004 	ldr	r2, [r3, #4]
    74d8:	e1a02402 	lsl	r2, r2, #8
    74dc:	e58d2004 	str	r2, [sp, #4]
    74e0:	e2832008 	add	r2, r3, #8
    74e4:	e58d2008 	str	r2, [sp, #8]
    74e8:	e3a02003 	mov	r2, #3
    74ec:	e5cd200c 	strb	r2, [sp, #12]
    74f0:	e5d33007 	ldrb	r3, [r3, #7]
    74f4:	e5cd300d 	strb	r3, [sp, #13]
    74f8:	ebffff0c 	bl	7130 <__gnu_unwind_execute>
    74fc:	e28dd014 	add	sp, sp, #20
    7500:	e8bd8000 	ldmfd	sp!, {pc}

00007504 <_Unwind_GetRegionStart>:
    7504:	e92d401f 	push	{r0, r1, r2, r3, r4, lr}
    7508:	e3a01000 	mov	r1, #0
    750c:	e28d300c 	add	r3, sp, #12
    7510:	e3a0200c 	mov	r2, #12
    7514:	e58d3000 	str	r3, [sp]
    7518:	e1a03001 	mov	r3, r1
    751c:	ebfffc01 	bl	6528 <_Unwind_VRS_Get>
    7520:	e59d300c 	ldr	r3, [sp, #12]
    7524:	e5930048 	ldr	r0, [r3, #72]	; 0x48
    7528:	e28dd014 	add	sp, sp, #20
    752c:	e8bd8000 	ldmfd	sp!, {pc}

00007530 <_Unwind_GetLanguageSpecificData>:
    7530:	e92d401f 	push	{r0, r1, r2, r3, r4, lr}
    7534:	e3a01000 	mov	r1, #0
    7538:	e28d300c 	add	r3, sp, #12
    753c:	e3a0200c 	mov	r2, #12
    7540:	e58d3000 	str	r3, [sp]
    7544:	e1a03001 	mov	r3, r1
    7548:	ebfffbf6 	bl	6528 <_Unwind_VRS_Get>
    754c:	e59d300c 	ldr	r3, [sp, #12]
    7550:	e593304c 	ldr	r3, [r3, #76]	; 0x4c
    7554:	e5d32007 	ldrb	r2, [r3, #7]
    7558:	e0833102 	add	r3, r3, r2, lsl #2
    755c:	e2830008 	add	r0, r3, #8
    7560:	e28dd014 	add	sp, sp, #20
    7564:	e8bd8000 	ldmfd	sp!, {pc}

00007568 <_Unwind_GetDataRelBase>:
    7568:	e92d4008 	push	{r3, lr}
    756c:	ebffea78 	bl	1f54 <abort@plt>

00007570 <_Unwind_GetTextRelBase>:
    7570:	e92d4008 	push	{r3, lr}
    7574:	ebffea76 	bl	1f54 <abort@plt>
    7578:	e59fc004 	ldr	ip, [pc, #4]	; 7584 <_Unwind_GetTextRelBase+0x14>
    757c:	e08fc00c 	add	ip, pc, ip
    7580:	e12fff1c 	bx	ip
    7584:	ffffe3e9 			; <UNDEFINED> instruction: 0xffffe3e9
    7588:	e59fc004 	ldr	ip, [pc, #4]	; 7594 <_Unwind_GetTextRelBase+0x24>
    758c:	e08fc00c 	add	ip, pc, ip
    7590:	e12fff1c 	bx	ip
    7594:	ffffe5b1 			; <UNDEFINED> instruction: 0xffffe5b1
    7598:	46c04778 			; <UNDEFINED> instruction: 0x46c04778
    759c:	e59fc000 	ldr	ip, [pc]	; 75a4 <_Unwind_GetTextRelBase+0x34>
    75a0:	e08cf00f 	add	pc, ip, pc
    75a4:	ffffa868 			; <UNDEFINED> instruction: 0xffffa868
